Archive member included to satisfy reference by file (symbol)

../lib/pegasus_crt.a(exit.o)  start.o (exit)
../lib/pegasus_crt.a(kernel_main_old.o)
                              test.o (Printf)
../lib/pegasus_crt.a(double_link_list.o)
                              ../lib/pegasus_crt.a(kernel_main_old.o) (appendToDoubleLinkList)
../lib/pegasus_crt.a(kernel.o)
                              ../lib/pegasus_crt.a(kernel_main_old.o) (disp_str)
../lib/pegasus_crt.a(string.o)
                              ../lib/pegasus_crt.a(kernel_main_old.o) (Memcpy2)
../lib/pegasus_crt.a(hd.o)    ../lib/pegasus_crt.a(kernel.o) (hd_handler)
../lib/pegasus_crt.a(syscall.o)
                              ../lib/pegasus_crt.a(kernel_main_old.o) (write_debug)
../lib/pegasus_crt.a(global.o)
                              ../lib/pegasus_crt.a(kernel.o) (sys_call_table)
../lib/pegasus_crt.a(hd_rdwt.o)
                              ../lib/pegasus_crt.a(hd.o) (read_port)
../lib/pegasus_crt.a(process.o)
                              ../lib/pegasus_crt.a(kernel_main_old.o) (schedule_process)
../lib/pegasus_crt.a(protect.o)
                              ../lib/pegasus_crt.a(kernel_main_old.o) (InitInterruptDesc)
../lib/pegasus_crt.a(console.o)
                              ../lib/pegasus_crt.a(kernel_main_old.o) (out_char)
../lib/pegasus_crt.a(keyboard.o)
                              ../lib/pegasus_crt.a(kernel.o) (keyboard_handler)
../lib/pegasus_crt.a(open.o)  ../lib/pegasus_crt.a(kernel_main_old.o) (open)
../lib/pegasus_crt.a(read.o)  ../lib/pegasus_crt.a(kernel_main_old.o) (read)
../lib/pegasus_crt.a(write.o)
                              ../lib/pegasus_crt.a(kernel_main_old.o) (write)
../lib/pegasus_crt.a(close.o)
                              ../lib/pegasus_crt.a(kernel_main_old.o) (close)
../lib/pegasus_crt.a(wait.o)  ../lib/pegasus_crt.a(kernel_main_old.o) (wait)
../lib/pegasus_crt.a(fork.o)  ../lib/pegasus_crt.a(kernel_main_old.o) (fork)
../lib/pegasus_crt.a(exec.o)  ../lib/pegasus_crt.a(kernel_main_old.o) (execv)
../lib/pegasus_crt.a(main.o)  ../lib/pegasus_crt.a(global.o) (TaskMM)
../lib/pegasus_crt.a(exec.o)  ../lib/pegasus_crt.a(main.o) (do_exec)
../lib/pegasus_crt.a(forkexit.o)
                              ../lib/pegasus_crt.a(main.o) (do_fork)
../lib/pegasus_crt.a(mem.o)   ../lib/pegasus_crt.a(exec.o) (get_virtual_address_start_with_addr)
../lib/pegasus_crt.a(my_process.o)
                              ../lib/pegasus_crt.a(forkexit.o) (fork_process)
../lib/pegasus_crt.a(switch_to.o)
                              ../lib/pegasus_crt.a(process.o) (switch_to)
../lib/pegasus_crt.a(thread.o)
                              ../lib/pegasus_crt.a(my_process.o) (thread_init)
../lib/pegasus_crt.a(fs_main.o)
                              ../lib/pegasus_crt.a(global.o) (task_fs)

Allocating common symbols
Common symbol       size              file

current_tty         0x4               ../lib/pegasus_crt.a(exit.o)
file_desc_table     0x400             ../lib/pegasus_crt.a(fs_main.o)
is_e0               0x1               ../lib/pegasus_crt.a(exit.o)
phy_super_block_buf
                    0x4               ../lib/pegasus_crt.a(fs_main.o)
phy_fsbuf           0x4               ../lib/pegasus_crt.a(fs_main.o)
idt_ptr             0x6               ../lib/pegasus_crt.a(exit.o)
pid                 0x4               ../lib/pegasus_crt.a(exit.o)
KernelVirtualMemory
                    0xc               ../lib/pegasus_crt.a(kernel_main_old.o)
inode_table         0xa00             ../lib/pegasus_crt.a(fs_main.o)
current_dis_pos     0x4               ../lib/pegasus_crt.a(exit.o)
dis_pos             0x4               ../lib/pegasus_crt.a(exit.o)
k_reenter           0x4               ../lib/pegasus_crt.a(exit.o)
super_block_buf     0x4               ../lib/pegasus_crt.a(fs_main.o)
gdt                 0x400             ../lib/pegasus_crt.a(exit.o)
proc_ready_table    0x4               ../lib/pegasus_crt.a(exit.o)
test_ticks          0x4               ../lib/pegasus_crt.a(exit.o)
hd_info             0x224             ../lib/pegasus_crt.a(hd.o)
proc_stack          0x70000           ../lib/pegasus_crt.a(global.o)
pcaller             0x4               ../lib/pegasus_crt.a(exit.o)
keyboard_buffer     0x20c             ../lib/pegasus_crt.a(exit.o)
pcb_list            0x10              ../lib/pegasus_crt.a(exit.o)
gdt_index           0x4               ../lib/pegasus_crt.a(exit.o)
tty_table           0x828             ../lib/pegasus_crt.a(exit.o)
tss                 0x6c              ../lib/pegasus_crt.a(exit.o)
KernelPool          0x10              ../lib/pegasus_crt.a(kernel_main_old.o)
fsbuf               0x4               ../lib/pegasus_crt.a(fs_main.o)
root                0x28              ../lib/pegasus_crt.a(fs_main.o)
kernel_mem_block_decs_array
                    0xf0              ../lib/pegasus_crt.a(mem.o)
counter             0x4               ../lib/pegasus_crt.a(exit.o)
key_pressed         0x4               ../lib/pegasus_crt.a(exit.o)
is_shift            0x1               ../lib/pegasus_crt.a(exit.o)
gdt_ptr             0x6               ../lib/pegasus_crt.a(exit.o)
idt                 0x800             ../lib/pegasus_crt.a(exit.o)
main_thread         0x4               ../lib/pegasus_crt.a(exit.o)
ticks               0x8               ../lib/pegasus_crt.a(exit.o)
is_init             0x1               ../lib/pegasus_crt.a(exit.o)
UserPool            0x10              ../lib/pegasus_crt.a(kernel_main_old.o)
all_pcb_list        0x10              ../lib/pegasus_crt.a(exit.o)
console_table       0x10              ../lib/pegasus_crt.a(exit.o)
is_disp             0x1               ../lib/pegasus_crt.a(exit.o)
proc_table          0x15a0            ../lib/pegasus_crt.a(global.o)
hd_cache            0x200             ../lib/pegasus_crt.a(hd.o)

Discarded input sections

 .note.GNU-stack
                0x0000000000000000        0x0 test.o
 .note.GNU-stack
                0x0000000000000000        0x0 ../lib/pegasus_crt.a(exit.o)
 .note.GNU-stack
                0x0000000000000000        0x0 ../lib/pegasus_crt.a(kernel_main_old.o)
 .note.GNU-stack
                0x0000000000000000        0x0 ../lib/pegasus_crt.a(double_link_list.o)
 .note.GNU-stack
                0x0000000000000000        0x0 ../lib/pegasus_crt.a(hd.o)
 .note.GNU-stack
                0x0000000000000000        0x0 ../lib/pegasus_crt.a(global.o)
 .note.GNU-stack
                0x0000000000000000        0x0 ../lib/pegasus_crt.a(process.o)
 .note.GNU-stack
                0x0000000000000000        0x0 ../lib/pegasus_crt.a(protect.o)
 .note.GNU-stack
                0x0000000000000000        0x0 ../lib/pegasus_crt.a(console.o)
 .note.GNU-stack
                0x0000000000000000        0x0 ../lib/pegasus_crt.a(keyboard.o)
 .note.GNU-stack
                0x0000000000000000        0x0 ../lib/pegasus_crt.a(open.o)
 .note.GNU-stack
                0x0000000000000000        0x0 ../lib/pegasus_crt.a(read.o)
 .note.GNU-stack
                0x0000000000000000        0x0 ../lib/pegasus_crt.a(write.o)
 .note.GNU-stack
                0x0000000000000000        0x0 ../lib/pegasus_crt.a(close.o)
 .note.GNU-stack
                0x0000000000000000        0x0 ../lib/pegasus_crt.a(wait.o)
 .note.GNU-stack
                0x0000000000000000        0x0 ../lib/pegasus_crt.a(fork.o)
 .note.GNU-stack
                0x0000000000000000        0x0 ../lib/pegasus_crt.a(exec.o)
 .note.GNU-stack
                0x0000000000000000        0x0 ../lib/pegasus_crt.a(main.o)
 .note.GNU-stack
                0x0000000000000000        0x0 ../lib/pegasus_crt.a(exec.o)
 .note.GNU-stack
                0x0000000000000000        0x0 ../lib/pegasus_crt.a(forkexit.o)
 .note.GNU-stack
                0x0000000000000000        0x0 ../lib/pegasus_crt.a(mem.o)
 .note.GNU-stack
                0x0000000000000000        0x0 ../lib/pegasus_crt.a(my_process.o)
 .note.GNU-stack
                0x0000000000000000        0x0 ../lib/pegasus_crt.a(thread.o)
 .note.GNU-stack
                0x0000000000000000        0x0 ../lib/pegasus_crt.a(fs_main.o)

Memory Configuration

Name             Origin             Length             Attributes
*default*        0x0000000000000000 0xffffffffffffffff

Linker script and memory map

Address of section .text set to 0xb0800000
LOAD test.o
LOAD start.o
LOAD ../lib/pegasus_crt.a
                [!provide]                        PROVIDE (__executable_start = SEGMENT_START ("text-segment", 0x8048000))
                0x0000000008048094                . = (SEGMENT_START ("text-segment", 0x8048000) + SIZEOF_HEADERS)

.interp
 *(.interp)

.note.gnu.build-id
 *(.note.gnu.build-id)

.hash
 *(.hash)

.gnu.hash
 *(.gnu.hash)

.dynsym
 *(.dynsym)

.dynstr
 *(.dynstr)

.gnu.version
 *(.gnu.version)

.gnu.version_d
 *(.gnu.version_d)

.gnu.version_r
 *(.gnu.version_r)

.rel.dyn        0x0000000008048094        0x0
 *(.rel.init)
 *(.rel.text .rel.text.* .rel.gnu.linkonce.t.*)
 .rel.text      0x0000000008048094        0x0 test.o
 *(.rel.fini)
 *(.rel.rodata .rel.rodata.* .rel.gnu.linkonce.r.*)
 *(.rel.data.rel.ro .rel.data.rel.ro.* .rel.gnu.linkonce.d.rel.ro.*)
 *(.rel.data .rel.data.* .rel.gnu.linkonce.d.*)
 *(.rel.tdata .rel.tdata.* .rel.gnu.linkonce.td.*)
 *(.rel.tbss .rel.tbss.* .rel.gnu.linkonce.tb.*)
 *(.rel.ctors)
 *(.rel.dtors)
 *(.rel.got)
 .rel.got       0x0000000008048094        0x0 test.o
 *(.rel.bss .rel.bss.* .rel.gnu.linkonce.b.*)
 *(.rel.ifunc)

.rel.plt        0x0000000008048094        0x0
 *(.rel.plt)
                [!provide]                        PROVIDE (__rel_iplt_start = .)
 *(.rel.iplt)
 .rel.iplt      0x0000000008048094        0x0 test.o
                [!provide]                        PROVIDE (__rel_iplt_end = .)

.init
 *(SORT_NONE(.init))

.plt            0x0000000008048098        0x0
 *(.plt)
 *(.iplt)
 .iplt          0x0000000008048098        0x0 test.o

.plt.got
 *(.plt.got)

.plt.sec
 *(.plt.sec)

.text           0x00000000b0800000     0x9ba6
 *(.text.unlikely .text.*_unlikely .text.unlikely.*)
 *(.text.exit .text.exit.*)
 *(.text.startup .text.startup.*)
 *(.text.hot .text.hot.*)
 *(.text .stub .text.* .gnu.linkonce.t.*)
 .text          0x00000000b0800000       0x3e test.o
                0x00000000b0800000                main
 *fill*         0x00000000b080003e        0x2 
 .text          0x00000000b0800040       0x15 start.o
                0x00000000b0800040                _start
 .text          0x00000000b0800055       0x2f ../lib/pegasus_crt.a(exit.o)
                0x00000000b0800055                exit
 .text          0x00000000b0800084     0x2876 ../lib/pegasus_crt.a(kernel_main_old.o)
                0x00000000b0800084                catch_error
                0x00000000b08000a1                intr_enable
                0x00000000b08000ca                intr_disable
                0x00000000b08000f3                intr_set_status
                0x00000000b0800111                intr_get_status
                0x00000000b080012e                Memcpy
                0x00000000b0800161                untar
                0x00000000b0800471                atoi
                0x00000000b0800517                disp_int
                0x00000000b0800540                do_page_fault
                0x00000000b080067d                exception_handler
                0x00000000b0800864                init_internal_interrupt
                0x00000000b08009d9                spurious_irq
                0x00000000b0800a67                init_keyboard
                0x00000000b0800ad4                TestTTY
                0x00000000b0800b73                TestFS
                0x00000000b0800f7b                wait_exit
                0x00000000b0801049                INIT_fork
                0x00000000b0801326                simple_shell
                0x00000000b0801524                test_shell
                0x00000000b080158c                test_exec
                0x00000000b0801634                INIT
                0x00000000b0801641                TestA
                0x00000000b0801676                delay
                0x00000000b08016ba                TestB
                0x00000000b08016d2                TestC
                0x00000000b0801705                sys_get_ticks
                0x00000000b0801715                sys_write
                0x00000000b0801769                milli_delay
                0x00000000b08017a5                TaskSys
                0x00000000b08017aa                Printf
                0x00000000b0801808                vsprintf
                0x00000000b08019b4                printx
                0x00000000b08019f7                sys_printx
                0x00000000b0801ac3                spin
                0x00000000b0801ae9                panic
                0x00000000b0801b07                assertion_failure
                0x00000000b0801b79                dead_lock
                0x00000000b0801b83                sys_send_msg
                0x00000000b0801fc1                sys_receive_msg
                0x00000000b0802524                send_rec
                0x00000000b080261f                block
                0x00000000b080265b                unblock
                0x00000000b08026ab                get_ticks_ipc
                0x00000000b0802702                itoa
                0x00000000b0802758                i2a
                0x00000000b08027be                inform_int
                0x00000000b080288b                strcmp
 .text          0x00000000b08028fa      0x329 ../lib/pegasus_crt.a(double_link_list.o)
                0x00000000b08028fa                initDoubleLinkList
                0x00000000b0802928                isListEmpty
                0x00000000b0802949                findElementInList
                0x00000000b0802a25                appendToDoubleLinkList
                0x00000000b0802b0c                insertToDoubleLinkList
                0x00000000b0802b8f                popFromDoubleLinkList
 *fill*         0x00000000b0802c23        0xd 
 .text          0x00000000b0802c30      0x325 ../lib/pegasus_crt.a(kernel.o)
                0x00000000b0802c30                InterruptTest
                0x00000000b0802c3c                disp_str
                0x00000000b0802c77                disp_str_colour
                0x00000000b0802cb3                divide_zero_fault
                0x00000000b0802cb9                single_step_fault
                0x00000000b0802cbf                non_maskable_interrupt
                0x00000000b0802cc5                breakpoint_trap
                0x00000000b0802ccb                overflow_trap
                0x00000000b0802cd1                bound_range_exceeded_fault
                0x00000000b0802cd7                invalid_opcode_fault
                0x00000000b0802cdd                coprocessor_not_available_fault
                0x00000000b0802ce3                double_fault_exception_abort
                0x00000000b0802ce7                coprocessor_segment_overrun
                0x00000000b0802ced                invalid_task_state_segment_fault
                0x00000000b0802cf1                segment_not_present_fault
                0x00000000b0802cf5                stack_exception_fault
                0x00000000b0802cf9                general_protection_exception_fault
                0x00000000b0802d04                page_fault
                0x00000000b0802d08                coprocessor_error_fault
                0x00000000b0802d0e                align_check_fault
                0x00000000b0802d12                simd_float_exception_fault
                0x00000000b0802d21                hwint0
                0x00000000b0802d4e                hwint1
                0x00000000b0802d90                hwint14
                0x00000000b0802dce                sys_call
                0x00000000b0802e13                fork_restart
                0x00000000b0802e1c                restart
                0x00000000b0802e3d                in_byte
                0x00000000b0802e49                out_byte
                0x00000000b0802e6b                disable_int
                0x00000000b0802e6d                enable_int
                0x00000000b0802f03                enable_8259A_casecade_irq
                0x00000000b0802f0d                disable_8259A_casecade_irq
                0x00000000b0802f17                enable_8259A_slave_winchester_irq
                0x00000000b0802f21                disable_8259A_slave_winchester_irq
                0x00000000b0802f2b                update_cr3
                0x00000000b0802f38                update_tss
                0x00000000b0802f47                get_running_thread_pcb
                0x00000000b0802f4f                sys_call_test
 .text          0x00000000b0802f55      0xe1d ../lib/pegasus_crt.a(hd.o)
                0x00000000b0802f55                TaskHD
                0x00000000b0802f9a                init_hd
                0x00000000b0802fb4                hd_handle
                0x00000000b08030b9                hd_cmd_out
                0x00000000b08031bb                hd_identify
                0x00000000b0803272                print_hdinfo
                0x00000000b0803400                print_dpt_entry
                0x00000000b080346c                get_partition_table
                0x00000000b080354b                partition
                0x00000000b0803765                hd_open
                0x00000000b080380c                get_hd_ioctl
                0x00000000b08038bd                wait_for
                0x00000000b08038ee                interrupt_wait
                0x00000000b080393e                hd_rdwt
                0x00000000b0803bdd                hd_handler
                0x00000000b0803c09                waitfor
                0x00000000b0803c4d                print_hd_info
                0x00000000b0803d3a                is_empty
 *fill*         0x00000000b0803d72        0xe 
 .text          0x00000000b0803d80       0x69 ../lib/pegasus_crt.a(syscall.o)
                0x00000000b0803d80                write_debug
                0x00000000b0803d90                send_msg
                0x00000000b0803da6                receive_msg
                0x00000000b0803dbc                sys_malloc
                0x00000000b0803dd1                sys_free
 .text          0x00000000b0803de9        0x0 ../lib/pegasus_crt.a(global.o)
 .text          0x00000000b0803de9      0x1dd ../lib/pegasus_crt.a(process.o)
                0x00000000b0803de9                schedule_process
                0x00000000b0803eee                clock_handler
                0x00000000b0803f3d                pid2proc
                0x00000000b0803faf                proc2pid
 .text          0x00000000b0803fc6      0x3a0 ../lib/pegasus_crt.a(protect.o)
                0x00000000b0803fc6                InitDescriptor
                0x00000000b0804033                Seg2PhyAddr
                0x00000000b0804074                Seg2PhyAddrLDT
                0x00000000b08040b8                VirAddr2PhyAddr
                0x00000000b08040ce                v2l
                0x00000000b0804111                init_propt
                0x00000000b080427f                InitInterruptDesc
                0x00000000b08042db                ReloadGDT
 .text          0x00000000b0804366      0xaca ../lib/pegasus_crt.a(console.o)
                0x00000000b0804366                select_console
                0x00000000b08043a2                flush
                0x00000000b08043db                set_cursor
                0x00000000b0804439                set_console_start_video_addr
                0x00000000b0804497                put_key
                0x00000000b0804503                scroll_up
                0x00000000b0804545                scroll_down
                0x00000000b08045b0                out_char
                0x00000000b080476d                tty_dev_read
                0x00000000b0804797                tty_dev_write
                0x00000000b08049c4                tty_do_read
                0x00000000b0804a8c                tty_do_write
                0x00000000b0804bef                init_screen
                0x00000000b0804c78                init_tty
                0x00000000b0804d2d                TaskTTY
 .text          0x00000000b0804e30      0x40f ../lib/pegasus_crt.a(keyboard.o)
                0x00000000b0804e30                keyboard_handler
                0x00000000b0804eb4                read_from_keyboard_buf
                0x00000000b0804f1a                keyboard_read
                0x00000000b0805099                init_keyboard_handler
                0x00000000b08050ad                in_process
 .text          0x00000000b080523f       0x95 ../lib/pegasus_crt.a(open.o)
                0x00000000b080523f                open
 .text          0x00000000b08052d4      0x181 ../lib/pegasus_crt.a(read.o)
                0x00000000b08052d4                read
 .text          0x00000000b0805455       0x85 ../lib/pegasus_crt.a(write.o)
                0x00000000b0805455                write
 .text          0x00000000b08054da       0x52 ../lib/pegasus_crt.a(close.o)
                0x00000000b08054da                close
 .text          0x00000000b080552c       0x44 ../lib/pegasus_crt.a(wait.o)
                0x00000000b080552c                wait
 .text          0x00000000b0805570       0x48 ../lib/pegasus_crt.a(fork.o)
                0x00000000b0805570                fork
 .text          0x00000000b08055b8      0x27b ../lib/pegasus_crt.a(exec.o)
                0x00000000b08055b8                exec
                0x00000000b0805629                execv
                0x00000000b080580e                execl
 .text          0x00000000b0805833      0x148 ../lib/pegasus_crt.a(main.o)
                0x00000000b0805833                TaskMM
                0x00000000b080595c                alloc_mem
 .text          0x00000000b080597b      0x419 ../lib/pegasus_crt.a(exec.o)
                0x00000000b080597b                do_exec
 .text          0x00000000b0805d94      0x269 ../lib/pegasus_crt.a(forkexit.o)
                0x00000000b0805d94                do_fork
                0x00000000b0805e02                do_exit
                0x00000000b0805e84                do_wait
                0x00000000b0805fa3                cleanup
 .text          0x00000000b0805ffd     0x1266 ../lib/pegasus_crt.a(mem.o)
                0x00000000b0805ffd                init_bitmap
                0x00000000b0806020                test_bit_val
                0x00000000b0806089                set_bit_val
                0x00000000b0806104                set_bits
                0x00000000b080613e                get_first_free_bit
                0x00000000b0806182                get_bits
                0x00000000b080624a                get_a_page
                0x00000000b08062fe                get_virtual_address_start_with_addr
                0x00000000b0806398                get_virtual_address
                0x00000000b0806428                ptr_pde
                0x00000000b080643b                ptr_pte
                0x00000000b0806462                add_map_entry
                0x00000000b08064f3                alloc_virtual_memory
                0x00000000b08065c1                get_physical_address_proc
                0x00000000b080663d                get_physical_address
                0x00000000b080666f                alloc_physical_memory_of_proc
                0x00000000b080675e                alloc_physical_memory
                0x00000000b0806826                alloc_memory
                0x00000000b0806888                get_a_virtual_page
                0x00000000b08068c0                block2arena
                0x00000000b08068d6                sys_malloc2
                0x00000000b0806b87                remove_map_entry
                0x00000000b0806ba8                free_a_page
                0x00000000b0806c4f                sys_free2
                0x00000000b0806dd2                init_memory_block_desc
                0x00000000b0806ea3                init_memory2
                0x00000000b080711a                init_memory
 .text          0x00000000b0807263      0x73e ../lib/pegasus_crt.a(my_process.o)
                0x00000000b0807263                create_user_process_address_space
                0x00000000b08072f3                user_process
                0x00000000b0807402                clone_pcb
                0x00000000b0807579                build_body_stack
                0x00000000b08076ac                build_process_kernel_stack
                0x00000000b080776f                fork_process
                0x00000000b0807830                process_execute
 *fill*         0x00000000b08079a1        0xf 
 .text          0x00000000b08079b0       0x15 ../lib/pegasus_crt.a(switch_to.o)
                0x00000000b08079b0                switch_to
 .text          0x00000000b08079c5      0x1b2 ../lib/pegasus_crt.a(thread.o)
                0x00000000b08079c5                kernel_thread
                0x00000000b08079dd                thread_init
                0x00000000b0807a8a                thread_create
                0x00000000b0807abf                thread_start
 .text          0x00000000b0807b77     0x202f ../lib/pegasus_crt.a(fs_main.o)
                0x00000000b0807b77                task_fs
                0x00000000b0807d82                rd_wt
                0x00000000b0807e5b                mkfs
                0x00000000b080843d                init_fs
                0x00000000b0808491                do_open
                0x00000000b0808660                search_file
                0x00000000b0808792                strip_path
                0x00000000b080885e                get_inode
                0x00000000b0808a20                create_file
                0x00000000b0808b2b                alloc_imap_bit
                0x00000000b0808c28                alloc_smap_bit
                0x00000000b0808dc9                new_inode
                0x00000000b0808ee7                new_dir_entry
                0x00000000b08090f3                do_unlink
                0x00000000b08095cf                do_rdwt
                0x00000000b080995a                sync_inode
                0x00000000b0809aae                put_inode
                0x00000000b0809aec                do_close
                0x00000000b0809b3e                get_super_block
 *(.gnu.warning)

.fini
 *(SORT_NONE(.fini))
                [!provide]                        PROVIDE (__etext = .)
                [!provide]                        PROVIDE (_etext = .)
                [!provide]                        PROVIDE (etext = .)

.rodata         0x00000000b0809bc0      0xd17
 *(.rodata .rodata.* .gnu.linkonce.r.*)
 .rodata        0x00000000b0809bc0       0x10 test.o
 *fill*         0x00000000b0809bd0       0x10 
 .rodata        0x00000000b0809be0      0x825 ../lib/pegasus_crt.a(kernel_main_old.o)
 .rodata        0x00000000b080a405       0x2c ../lib/pegasus_crt.a(double_link_list.o)
 *fill*         0x00000000b080a431        0x3 
 .rodata        0x00000000b080a434      0x19c ../lib/pegasus_crt.a(hd.o)
 .rodata        0x00000000b080a5d0       0x26 ../lib/pegasus_crt.a(process.o)
 .rodata        0x00000000b080a5f6       0x22 ../lib/pegasus_crt.a(console.o)
 .rodata        0x00000000b080a618       0x24 ../lib/pegasus_crt.a(close.o)
 .rodata        0x00000000b080a63c       0x2d ../lib/pegasus_crt.a(exec.o)
 .rodata        0x00000000b080a669       0x11 ../lib/pegasus_crt.a(main.o)
 .rodata        0x00000000b080a67a       0x10 ../lib/pegasus_crt.a(exec.o)
 .rodata        0x00000000b080a68a       0x21 ../lib/pegasus_crt.a(forkexit.o)
 .rodata        0x00000000b080a6ab       0x41 ../lib/pegasus_crt.a(mem.o)
 .rodata        0x00000000b080a6ec      0x1eb ../lib/pegasus_crt.a(fs_main.o)
                0x00000000b080a6ec                FSBUF_SIZE

.txt            0x00000000b080a8d7       0xaa
 .txt           0x00000000b080a8d7       0x82 ../lib/pegasus_crt.a(string.o)
                0x00000000b080a8d7                Memcpy2
                0x00000000b080a905                Memset
                0x00000000b080a924                Strcpy
                0x00000000b080a93e                Strlen
 .txt           0x00000000b080a959       0x28 ../lib/pegasus_crt.a(hd_rdwt.o)
                0x00000000b080a959                read_port
                0x00000000b080a96d                write_port

.rodata1
 *(.rodata1)

.eh_frame_hdr
 *(.eh_frame_hdr)
 *(.eh_frame_entry .eh_frame_entry.*)

.eh_frame       0x00000000b080a984     0x1694
 *(.eh_frame)
 .eh_frame      0x00000000b080a984       0x44 test.o
 .eh_frame      0x00000000b080a9c8       0x20 ../lib/pegasus_crt.a(exit.o)
                                         0x38 (size before relaxing)
 .eh_frame      0x00000000b080a9e8      0x5f0 ../lib/pegasus_crt.a(kernel_main_old.o)
                                        0x608 (size before relaxing)
 .eh_frame      0x00000000b080afd8       0xc0 ../lib/pegasus_crt.a(double_link_list.o)
                                         0xd8 (size before relaxing)
 .eh_frame      0x00000000b080b098      0x244 ../lib/pegasus_crt.a(hd.o)
                                        0x25c (size before relaxing)
 .eh_frame      0x00000000b080b2dc       0x80 ../lib/pegasus_crt.a(process.o)
                                         0x98 (size before relaxing)
 .eh_frame      0x00000000b080b35c      0x100 ../lib/pegasus_crt.a(protect.o)
                                        0x118 (size before relaxing)
 .eh_frame      0x00000000b080b45c      0x1e0 ../lib/pegasus_crt.a(console.o)
                                        0x1f8 (size before relaxing)
 .eh_frame      0x00000000b080b63c       0xa0 ../lib/pegasus_crt.a(keyboard.o)
                                         0xb8 (size before relaxing)
 .eh_frame      0x00000000b080b6dc       0x20 ../lib/pegasus_crt.a(open.o)
                                         0x38 (size before relaxing)
 .eh_frame      0x00000000b080b6fc       0x20 ../lib/pegasus_crt.a(read.o)
                                         0x38 (size before relaxing)
 .eh_frame      0x00000000b080b71c       0x20 ../lib/pegasus_crt.a(write.o)
                                         0x38 (size before relaxing)
 .eh_frame      0x00000000b080b73c       0x20 ../lib/pegasus_crt.a(close.o)
                                         0x38 (size before relaxing)
 .eh_frame      0x00000000b080b75c       0x20 ../lib/pegasus_crt.a(wait.o)
                                         0x38 (size before relaxing)
 .eh_frame      0x00000000b080b77c       0x20 ../lib/pegasus_crt.a(fork.o)
                                         0x38 (size before relaxing)
 .eh_frame      0x00000000b080b79c       0x60 ../lib/pegasus_crt.a(exec.o)
                                         0x78 (size before relaxing)
 .eh_frame      0x00000000b080b7fc       0x3c ../lib/pegasus_crt.a(main.o)
                                         0x54 (size before relaxing)
 .eh_frame      0x00000000b080b838       0x20 ../lib/pegasus_crt.a(exec.o)
                                         0x38 (size before relaxing)
 .eh_frame      0x00000000b080b858       0x80 ../lib/pegasus_crt.a(forkexit.o)
                                         0x98 (size before relaxing)
 .eh_frame      0x00000000b080b8d8      0x364 ../lib/pegasus_crt.a(mem.o)
                                        0x37c (size before relaxing)
 .eh_frame      0x00000000b080bc3c       0xe0 ../lib/pegasus_crt.a(my_process.o)
                                         0xf8 (size before relaxing)
 .eh_frame      0x00000000b080bd1c       0x80 ../lib/pegasus_crt.a(thread.o)
                                         0x98 (size before relaxing)
 .eh_frame      0x00000000b080bd9c      0x27c ../lib/pegasus_crt.a(fs_main.o)
                                        0x294 (size before relaxing)
 *(.eh_frame.*)

.gcc_except_table
 *(.gcc_except_table .gcc_except_table.*)

.gnu_extab
 *(.gnu_extab*)

.exception_ranges
 *(.exception_ranges .exception_ranges*)
                0x00000000b080e000                . = DATA_SEGMENT_ALIGN (CONSTANT (MAXPAGESIZE), CONSTANT (COMMONPAGESIZE))

.eh_frame
 *(.eh_frame)
 *(.eh_frame.*)

.gnu_extab
 *(.gnu_extab)

.gcc_except_table
 *(.gcc_except_table .gcc_except_table.*)

.exception_ranges
 *(.exception_ranges .exception_ranges*)

.tdata
 *(.tdata .tdata.* .gnu.linkonce.td.*)

.tbss
 *(.tbss .tbss.* .gnu.linkonce.tb.*)
 *(.tcommon)

.preinit_array  0x00000000b080e000        0x0
                [!provide]                        PROVIDE (__preinit_array_start = .)
 *(.preinit_array)
                [!provide]                        PROVIDE (__preinit_array_end = .)

.init_array     0x00000000b080e000        0x0
                [!provide]                        PROVIDE (__init_array_start = .)
 *(SORT_BY_INIT_PRIORITY(.init_array.*) SORT_BY_INIT_PRIORITY(.ctors.*))
 *(.init_array EXCLUDE_FILE(*crtend?.o *crtend.o *crtbegin?.o *crtbegin.o) .ctors)
                [!provide]                        PROVIDE (__init_array_end = .)

.fini_array     0x00000000b080e000        0x0
                [!provide]                        PROVIDE (__fini_array_start = .)
 *(SORT_BY_INIT_PRIORITY(.fini_array.*) SORT_BY_INIT_PRIORITY(.dtors.*))
 *(.fini_array EXCLUDE_FILE(*crtend?.o *crtend.o *crtbegin?.o *crtbegin.o) .dtors)
                [!provide]                        PROVIDE (__fini_array_end = .)

.ctors
 *crtbegin.o(.ctors)
 *crtbegin?.o(.ctors)
 *(EXCLUDE_FILE(*crtend?.o *crtend.o) .ctors)
 *(SORT_BY_NAME(.ctors.*))
 *(.ctors)

.dtors
 *crtbegin.o(.dtors)
 *crtbegin?.o(.dtors)
 *(EXCLUDE_FILE(*crtend?.o *crtend.o) .dtors)
 *(SORT_BY_NAME(.dtors.*))
 *(.dtors)

.jcr
 *(.jcr)

.data.rel.ro
 *(.data.rel.ro.local* .gnu.linkonce.d.rel.ro.local.*)
 *(.data.rel.ro .data.rel.ro.* .gnu.linkonce.d.rel.ro.*)

.dynamic
 *(.dynamic)

.got            0x00000000b080e000        0x0
 *(.got)
 .got           0x00000000b080e000        0x0 test.o
 *(.igot)
                0x00000000b080e000                . = DATA_SEGMENT_RELRO_END (., (SIZEOF (.got.plt) >= 0xc)?0xc:0x0)

.got.plt        0x00000000b080e000        0x0
 *(.got.plt)
 .got.plt       0x00000000b080e000        0x0 test.o
 *(.igot.plt)
 .igot.plt      0x00000000b080e000        0x0 test.o

.data           0x00000000b080e000      0x760
 *(.data .data.* .gnu.linkonce.d.*)
 .data          0x00000000b080e000        0x0 test.o
 .data          0x00000000b080e000        0x0 ../lib/pegasus_crt.a(exit.o)
 .data          0x00000000b080e000        0x0 ../lib/pegasus_crt.a(kernel_main_old.o)
 .data          0x00000000b080e000        0x0 ../lib/pegasus_crt.a(double_link_list.o)
 .data          0x00000000b080e000        0xf ../lib/pegasus_crt.a(kernel.o)
 .data          0x00000000b080e00f        0x0 ../lib/pegasus_crt.a(hd.o)
 *fill*         0x00000000b080e00f        0x1 
 .data          0x00000000b080e010        0x0 ../lib/pegasus_crt.a(syscall.o)
 *fill*         0x00000000b080e010       0x10 
 .data          0x00000000b080e020      0x128 ../lib/pegasus_crt.a(global.o)
                0x00000000b080e020                user_task_table
                0x00000000b080e0a0                sys_task_table
                0x00000000b080e12c                sys_call_table
 .data          0x00000000b080e148        0x0 ../lib/pegasus_crt.a(process.o)
 .data          0x00000000b080e148        0x0 ../lib/pegasus_crt.a(protect.o)
 .data          0x00000000b080e148        0x0 ../lib/pegasus_crt.a(console.o)
 *fill*         0x00000000b080e148       0x18 
 .data          0x00000000b080e160      0x600 ../lib/pegasus_crt.a(keyboard.o)
                0x00000000b080e160                keymap
 .data          0x00000000b080e760        0x0 ../lib/pegasus_crt.a(open.o)
 .data          0x00000000b080e760        0x0 ../lib/pegasus_crt.a(read.o)
 .data          0x00000000b080e760        0x0 ../lib/pegasus_crt.a(write.o)
 .data          0x00000000b080e760        0x0 ../lib/pegasus_crt.a(close.o)
 .data          0x00000000b080e760        0x0 ../lib/pegasus_crt.a(wait.o)
 .data          0x00000000b080e760        0x0 ../lib/pegasus_crt.a(fork.o)
 .data          0x00000000b080e760        0x0 ../lib/pegasus_crt.a(exec.o)
 .data          0x00000000b080e760        0x0 ../lib/pegasus_crt.a(main.o)
 .data          0x00000000b080e760        0x0 ../lib/pegasus_crt.a(exec.o)
 .data          0x00000000b080e760        0x0 ../lib/pegasus_crt.a(forkexit.o)
 .data          0x00000000b080e760        0x0 ../lib/pegasus_crt.a(mem.o)
 .data          0x00000000b080e760        0x0 ../lib/pegasus_crt.a(my_process.o)
 .data          0x00000000b080e760        0x0 ../lib/pegasus_crt.a(thread.o)
 .data          0x00000000b080e760        0x0 ../lib/pegasus_crt.a(fs_main.o)

.data1
 *(.data1)
                0x00000000b080e760                _edata = .
                [!provide]                        PROVIDE (edata = .)
                0x00000000b080e760                . = .
                0x00000000b080e760                __bss_start = .

.bss            0x00000000b080e760    0x74908
 *(.dynbss)
 *(.bss .bss.* .gnu.linkonce.b.*)
 .bss           0x00000000b080e760        0x0 test.o
 .bss           0x00000000b080e760        0x0 ../lib/pegasus_crt.a(exit.o)
 .bss           0x00000000b080e760        0x0 ../lib/pegasus_crt.a(kernel_main_old.o)
 .bss           0x00000000b080e760        0x0 ../lib/pegasus_crt.a(double_link_list.o)
 .bss           0x00000000b080e760      0x800 ../lib/pegasus_crt.a(kernel.o)
 .bss           0x00000000b080ef60        0x0 ../lib/pegasus_crt.a(hd.o)
 .bss           0x00000000b080ef60        0x0 ../lib/pegasus_crt.a(global.o)
 .bss           0x00000000b080ef60        0x0 ../lib/pegasus_crt.a(process.o)
 .bss           0x00000000b080ef60        0x0 ../lib/pegasus_crt.a(protect.o)
 .bss           0x00000000b080ef60        0x0 ../lib/pegasus_crt.a(console.o)
 .bss           0x00000000b080ef60        0x0 ../lib/pegasus_crt.a(keyboard.o)
 .bss           0x00000000b080ef60        0x0 ../lib/pegasus_crt.a(open.o)
 .bss           0x00000000b080ef60        0x0 ../lib/pegasus_crt.a(read.o)
 .bss           0x00000000b080ef60        0x0 ../lib/pegasus_crt.a(write.o)
 .bss           0x00000000b080ef60        0x0 ../lib/pegasus_crt.a(close.o)
 .bss           0x00000000b080ef60        0x0 ../lib/pegasus_crt.a(wait.o)
 .bss           0x00000000b080ef60        0x0 ../lib/pegasus_crt.a(fork.o)
 .bss           0x00000000b080ef60        0x0 ../lib/pegasus_crt.a(exec.o)
 .bss           0x00000000b080ef60        0x0 ../lib/pegasus_crt.a(main.o)
 .bss           0x00000000b080ef60        0x0 ../lib/pegasus_crt.a(exec.o)
 .bss           0x00000000b080ef60        0x0 ../lib/pegasus_crt.a(forkexit.o)
 .bss           0x00000000b080ef60        0x0 ../lib/pegasus_crt.a(mem.o)
 .bss           0x00000000b080ef60        0x0 ../lib/pegasus_crt.a(my_process.o)
 .bss           0x00000000b080ef60        0x0 ../lib/pegasus_crt.a(thread.o)
 .bss           0x00000000b080ef60        0x4 ../lib/pegasus_crt.a(fs_main.o)
                0x00000000b080ef60                c
 *(COMMON)
 *fill*         0x00000000b080ef64       0x1c 
 COMMON         0x00000000b080ef80     0x1755 ../lib/pegasus_crt.a(exit.o)
                0x00000000b080ef80                current_tty
                0x00000000b080ef84                is_e0
                0x00000000b080ef88                idt_ptr
                0x00000000b080ef90                pid
                0x00000000b080ef94                current_dis_pos
                0x00000000b080ef98                dis_pos
                0x00000000b080ef9c                k_reenter
                0x00000000b080efa0                gdt
                0x00000000b080f3a0                proc_ready_table
                0x00000000b080f3a4                test_ticks
                0x00000000b080f3a8                pcaller
                0x00000000b080f3c0                keyboard_buffer
                0x00000000b080f5cc                pcb_list
                0x00000000b080f5dc                gdt_index
                0x00000000b080f5e0                tty_table
                0x00000000b080fe20                tss
                0x00000000b080fe8c                counter
                0x00000000b080fe90                key_pressed
                0x00000000b080fe94                is_shift
                0x00000000b080fe98                gdt_ptr
                0x00000000b080fea0                idt
                0x00000000b08106a0                main_thread
                0x00000000b08106a8                ticks
                0x00000000b08106b0                is_init
                0x00000000b08106b4                all_pcb_list
                0x00000000b08106c4                console_table
                0x00000000b08106d4                is_disp
 *fill*         0x00000000b08106d5        0x3 
 COMMON         0x00000000b08106d8       0x2c ../lib/pegasus_crt.a(kernel_main_old.o)
                0x00000000b08106d8                KernelVirtualMemory
                0x00000000b08106e4                KernelPool
                0x00000000b08106f4                UserPool
 *fill*         0x00000000b0810704       0x1c 
 COMMON         0x00000000b0810720      0x440 ../lib/pegasus_crt.a(hd.o)
                0x00000000b0810720                hd_info
                0x00000000b0810960                hd_cache
 COMMON         0x00000000b0810b60    0x715a0 ../lib/pegasus_crt.a(global.o)
                0x00000000b0810b60                proc_stack
                0x00000000b0880b60                proc_table
 COMMON         0x00000000b0882100       0xf0 ../lib/pegasus_crt.a(mem.o)
                0x00000000b0882100                kernel_mem_block_decs_array
 *fill*         0x00000000b08821f0       0x10 
 COMMON         0x00000000b0882200      0xe68 ../lib/pegasus_crt.a(fs_main.o)
                0x00000000b0882200                file_desc_table
                0x00000000b0882600                phy_super_block_buf
                0x00000000b0882604                phy_fsbuf
                0x00000000b0882620                inode_table
                0x00000000b0883020                super_block_buf
                0x00000000b0883024                fsbuf
                0x00000000b0883040                root
                0x00000000b0883068                . = ALIGN ((. != 0x0)?0x4:0x1)
                0x00000000b0883068                . = ALIGN (0x4)
                0x00000000b0883068                . = SEGMENT_START ("ldata-segment", .)
                0x00000000b0883068                . = ALIGN (0x4)
                0x00000000b0883068                _end = .
                [!provide]                        PROVIDE (end = .)
                0x00000000b0883068                . = DATA_SEGMENT_END (.)

.stab
 *(.stab)

.stabstr
 *(.stabstr)

.stab.excl
 *(.stab.excl)

.stab.exclstr
 *(.stab.exclstr)

.stab.index
 *(.stab.index)

.stab.indexstr
 *(.stab.indexstr)

.comment        0x0000000000000000       0x2c
 *(.comment)
 .comment       0x0000000000000000       0x2c test.o
                                         0x2d (size before relaxing)
 .comment       0x000000000000002c       0x2d ../lib/pegasus_crt.a(exit.o)
 .comment       0x000000000000002c       0x2d ../lib/pegasus_crt.a(kernel_main_old.o)
 .comment       0x000000000000002c       0x2d ../lib/pegasus_crt.a(double_link_list.o)
 .comment       0x000000000000002c       0x2d ../lib/pegasus_crt.a(hd.o)
 .comment       0x000000000000002c       0x2d ../lib/pegasus_crt.a(global.o)
 .comment       0x000000000000002c       0x2d ../lib/pegasus_crt.a(process.o)
 .comment       0x000000000000002c       0x2d ../lib/pegasus_crt.a(protect.o)
 .comment       0x000000000000002c       0x2d ../lib/pegasus_crt.a(console.o)
 .comment       0x000000000000002c       0x2d ../lib/pegasus_crt.a(keyboard.o)
 .comment       0x000000000000002c       0x2d ../lib/pegasus_crt.a(open.o)
 .comment       0x000000000000002c       0x2d ../lib/pegasus_crt.a(read.o)
 .comment       0x000000000000002c       0x2d ../lib/pegasus_crt.a(write.o)
 .comment       0x000000000000002c       0x2d ../lib/pegasus_crt.a(close.o)
 .comment       0x000000000000002c       0x2d ../lib/pegasus_crt.a(wait.o)
 .comment       0x000000000000002c       0x2d ../lib/pegasus_crt.a(fork.o)
 .comment       0x000000000000002c       0x2d ../lib/pegasus_crt.a(exec.o)
 .comment       0x000000000000002c       0x2d ../lib/pegasus_crt.a(main.o)
 .comment       0x000000000000002c       0x2d ../lib/pegasus_crt.a(exec.o)
 .comment       0x000000000000002c       0x2d ../lib/pegasus_crt.a(forkexit.o)
 .comment       0x000000000000002c       0x2d ../lib/pegasus_crt.a(mem.o)
 .comment       0x000000000000002c       0x2d ../lib/pegasus_crt.a(my_process.o)
 .comment       0x000000000000002c       0x2d ../lib/pegasus_crt.a(thread.o)
 .comment       0x000000000000002c       0x2d ../lib/pegasus_crt.a(fs_main.o)

.gnu.build.attributes
 *(.gnu.build.attributes .gnu.build.attributes.*)

.debug
 *(.debug)

.line
 *(.line)

.debug_srcinfo
 *(.debug_srcinfo)

.debug_sfnames
 *(.debug_sfnames)

.debug_aranges  0x0000000000000000      0x2d8
 *(.debug_aranges)
 .debug_aranges
                0x0000000000000000       0x20 ../lib/pegasus_crt.a(exit.o)
 .debug_aranges
                0x0000000000000020       0x20 ../lib/pegasus_crt.a(kernel_main_old.o)
 .debug_aranges
                0x0000000000000040       0x20 ../lib/pegasus_crt.a(double_link_list.o)
 .debug_aranges
                0x0000000000000060       0x20 ../lib/pegasus_crt.a(hd.o)
 .debug_aranges
                0x0000000000000080       0x18 ../lib/pegasus_crt.a(global.o)
 .debug_aranges
                0x0000000000000098       0x20 ../lib/pegasus_crt.a(process.o)
 .debug_aranges
                0x00000000000000b8       0x20 ../lib/pegasus_crt.a(protect.o)
 .debug_aranges
                0x00000000000000d8       0x20 ../lib/pegasus_crt.a(console.o)
 .debug_aranges
                0x00000000000000f8       0x20 ../lib/pegasus_crt.a(keyboard.o)
 .debug_aranges
                0x0000000000000118       0x20 ../lib/pegasus_crt.a(open.o)
 .debug_aranges
                0x0000000000000138       0x20 ../lib/pegasus_crt.a(read.o)
 .debug_aranges
                0x0000000000000158       0x20 ../lib/pegasus_crt.a(write.o)
 .debug_aranges
                0x0000000000000178       0x20 ../lib/pegasus_crt.a(close.o)
 .debug_aranges
                0x0000000000000198       0x20 ../lib/pegasus_crt.a(wait.o)
 .debug_aranges
                0x00000000000001b8       0x20 ../lib/pegasus_crt.a(fork.o)
 .debug_aranges
                0x00000000000001d8       0x20 ../lib/pegasus_crt.a(exec.o)
 .debug_aranges
                0x00000000000001f8       0x20 ../lib/pegasus_crt.a(main.o)
 .debug_aranges
                0x0000000000000218       0x20 ../lib/pegasus_crt.a(exec.o)
 .debug_aranges
                0x0000000000000238       0x20 ../lib/pegasus_crt.a(forkexit.o)
 .debug_aranges
                0x0000000000000258       0x20 ../lib/pegasus_crt.a(mem.o)
 .debug_aranges
                0x0000000000000278       0x20 ../lib/pegasus_crt.a(my_process.o)
 .debug_aranges
                0x0000000000000298       0x20 ../lib/pegasus_crt.a(thread.o)
 .debug_aranges
                0x00000000000002b8       0x20 ../lib/pegasus_crt.a(fs_main.o)

.debug_pubnames
 *(.debug_pubnames)

.debug_info     0x0000000000000000    0x1960a
 *(.debug_info .gnu.linkonce.wi.*)
 .debug_info    0x0000000000000000      0xd29 ../lib/pegasus_crt.a(exit.o)
 .debug_info    0x0000000000000d29     0x2634 ../lib/pegasus_crt.a(kernel_main_old.o)
 .debug_info    0x000000000000335d      0xfba ../lib/pegasus_crt.a(double_link_list.o)
 .debug_info    0x0000000000004317     0x1758 ../lib/pegasus_crt.a(hd.o)
 .debug_info    0x0000000000005a6f      0xe00 ../lib/pegasus_crt.a(global.o)
 .debug_info    0x000000000000686f      0xedc ../lib/pegasus_crt.a(process.o)
 .debug_info    0x000000000000774b     0x112b ../lib/pegasus_crt.a(protect.o)
 .debug_info    0x0000000000008876     0x1200 ../lib/pegasus_crt.a(console.o)
 .debug_info    0x0000000000009a76      0xf54 ../lib/pegasus_crt.a(keyboard.o)
 .debug_info    0x000000000000a9ca      0xd78 ../lib/pegasus_crt.a(open.o)
 .debug_info    0x000000000000b742      0xe17 ../lib/pegasus_crt.a(read.o)
 .debug_info    0x000000000000c559      0xda5 ../lib/pegasus_crt.a(write.o)
 .debug_info    0x000000000000d2fe      0xd2c ../lib/pegasus_crt.a(close.o)
 .debug_info    0x000000000000e02a      0xd37 ../lib/pegasus_crt.a(wait.o)
 .debug_info    0x000000000000ed61      0xd1e ../lib/pegasus_crt.a(fork.o)
 .debug_info    0x000000000000fa7f      0xea7 ../lib/pegasus_crt.a(exec.o)
 .debug_info    0x0000000000010926      0xd3c ../lib/pegasus_crt.a(main.o)
 .debug_info    0x0000000000011662     0x114a ../lib/pegasus_crt.a(exec.o)
 .debug_info    0x00000000000127ac      0xf32 ../lib/pegasus_crt.a(forkexit.o)
 .debug_info    0x00000000000136de     0x1cc8 ../lib/pegasus_crt.a(mem.o)
 .debug_info    0x00000000000153a6     0x13e7 ../lib/pegasus_crt.a(my_process.o)
 .debug_info    0x000000000001678d      0xfd2 ../lib/pegasus_crt.a(thread.o)
 .debug_info    0x000000000001775f     0x1eab ../lib/pegasus_crt.a(fs_main.o)

.debug_abbrev   0x0000000000000000     0x313b
 *(.debug_abbrev)
 .debug_abbrev  0x0000000000000000      0x19b ../lib/pegasus_crt.a(exit.o)
 .debug_abbrev  0x000000000000019b      0x43a ../lib/pegasus_crt.a(kernel_main_old.o)
 .debug_abbrev  0x00000000000005d5      0x216 ../lib/pegasus_crt.a(double_link_list.o)
 .debug_abbrev  0x00000000000007eb      0x2e3 ../lib/pegasus_crt.a(hd.o)
 .debug_abbrev  0x0000000000000ace      0x157 ../lib/pegasus_crt.a(global.o)
 .debug_abbrev  0x0000000000000c25      0x1e0 ../lib/pegasus_crt.a(process.o)
 .debug_abbrev  0x0000000000000e05      0x227 ../lib/pegasus_crt.a(protect.o)
 .debug_abbrev  0x000000000000102c      0x2ac ../lib/pegasus_crt.a(console.o)
 .debug_abbrev  0x00000000000012d8      0x1fb ../lib/pegasus_crt.a(keyboard.o)
 .debug_abbrev  0x00000000000014d3      0x1c5 ../lib/pegasus_crt.a(open.o)
 .debug_abbrev  0x0000000000001698      0x1ef ../lib/pegasus_crt.a(read.o)
 .debug_abbrev  0x0000000000001887      0x1db ../lib/pegasus_crt.a(write.o)
 .debug_abbrev  0x0000000000001a62      0x19d ../lib/pegasus_crt.a(close.o)
 .debug_abbrev  0x0000000000001bff      0x19f ../lib/pegasus_crt.a(wait.o)
 .debug_abbrev  0x0000000000001d9e      0x18a ../lib/pegasus_crt.a(fork.o)
 .debug_abbrev  0x0000000000001f28      0x1e8 ../lib/pegasus_crt.a(exec.o)
 .debug_abbrev  0x0000000000002110      0x208 ../lib/pegasus_crt.a(main.o)
 .debug_abbrev  0x0000000000002318      0x1c4 ../lib/pegasus_crt.a(exec.o)
 .debug_abbrev  0x00000000000024dc      0x204 ../lib/pegasus_crt.a(forkexit.o)
 .debug_abbrev  0x00000000000026e0      0x2ea ../lib/pegasus_crt.a(mem.o)
 .debug_abbrev  0x00000000000029ca      0x260 ../lib/pegasus_crt.a(my_process.o)
 .debug_abbrev  0x0000000000002c2a      0x222 ../lib/pegasus_crt.a(thread.o)
 .debug_abbrev  0x0000000000002e4c      0x2ef ../lib/pegasus_crt.a(fs_main.o)

.debug_line     0x0000000000000000     0x4535
 *(.debug_line .debug_line.* .debug_line_end)
 .debug_line    0x0000000000000000       0xa0 ../lib/pegasus_crt.a(exit.o)
 .debug_line    0x00000000000000a0      0xd23 ../lib/pegasus_crt.a(kernel_main_old.o)
 .debug_line    0x0000000000000dc3      0x253 ../lib/pegasus_crt.a(double_link_list.o)
 .debug_line    0x0000000000001016      0x613 ../lib/pegasus_crt.a(hd.o)
 .debug_line    0x0000000000001629       0x95 ../lib/pegasus_crt.a(global.o)
 .debug_line    0x00000000000016be      0x15a ../lib/pegasus_crt.a(process.o)
 .debug_line    0x0000000000001818      0x1fb ../lib/pegasus_crt.a(protect.o)
 .debug_line    0x0000000000001a13      0x54e ../lib/pegasus_crt.a(console.o)
 .debug_line    0x0000000000001f61      0x296 ../lib/pegasus_crt.a(keyboard.o)
 .debug_line    0x00000000000021f7       0xbd ../lib/pegasus_crt.a(open.o)
 .debug_line    0x00000000000022b4      0x155 ../lib/pegasus_crt.a(read.o)
 .debug_line    0x0000000000002409       0xbc ../lib/pegasus_crt.a(write.o)
 .debug_line    0x00000000000024c5       0xad ../lib/pegasus_crt.a(close.o)
 .debug_line    0x0000000000002572       0xb7 ../lib/pegasus_crt.a(wait.o)
 .debug_line    0x0000000000002629       0xa5 ../lib/pegasus_crt.a(fork.o)
 .debug_line    0x00000000000026ce      0x187 ../lib/pegasus_crt.a(exec.o)
 .debug_line    0x0000000000002855       0xec ../lib/pegasus_crt.a(main.o)
 .debug_line    0x0000000000002941      0x20c ../lib/pegasus_crt.a(exec.o)
 .debug_line    0x0000000000002b4d      0x179 ../lib/pegasus_crt.a(forkexit.o)
 .debug_line    0x0000000000002cc6      0x7dd ../lib/pegasus_crt.a(mem.o)
 .debug_line    0x00000000000034a3      0x33c ../lib/pegasus_crt.a(my_process.o)
 .debug_line    0x00000000000037df      0x145 ../lib/pegasus_crt.a(thread.o)
 .debug_line    0x0000000000003924      0xc11 ../lib/pegasus_crt.a(fs_main.o)

.debug_frame
 *(.debug_frame)

.debug_str      0x0000000000000000     0x1d82
 *(.debug_str)
 .debug_str     0x0000000000000000      0x484 ../lib/pegasus_crt.a(exit.o)
                                        0x54b (size before relaxing)
 .debug_str     0x0000000000000484      0x4ef ../lib/pegasus_crt.a(kernel_main_old.o)
                                        0xace (size before relaxing)
 .debug_str     0x0000000000000973       0x97 ../lib/pegasus_crt.a(double_link_list.o)
                                        0x677 (size before relaxing)
 .debug_str     0x0000000000000a0a      0x2a1 ../lib/pegasus_crt.a(hd.o)
                                        0x8b3 (size before relaxing)
 .debug_str     0x0000000000000cab        0x9 ../lib/pegasus_crt.a(global.o)
                                        0x5b6 (size before relaxing)
 .debug_str     0x0000000000000cb4       0x31 ../lib/pegasus_crt.a(process.o)
                                        0x5f0 (size before relaxing)
 .debug_str     0x0000000000000ce5      0x125 ../lib/pegasus_crt.a(protect.o)
                                        0x711 (size before relaxing)
 .debug_str     0x0000000000000e0a      0x10d ../lib/pegasus_crt.a(console.o)
                                        0x705 (size before relaxing)
 .debug_str     0x0000000000000f17       0x84 ../lib/pegasus_crt.a(keyboard.o)
                                        0x642 (size before relaxing)
 .debug_str     0x0000000000000f9b       0x2d ../lib/pegasus_crt.a(open.o)
                                        0x57e (size before relaxing)
 .debug_str     0x0000000000000fc8       0x51 ../lib/pegasus_crt.a(read.o)
                                        0x5b7 (size before relaxing)
 .debug_str     0x0000000000001019        0xc ../lib/pegasus_crt.a(write.o)
                                        0x57b (size before relaxing)
 .debug_str     0x0000000000001025        0xc ../lib/pegasus_crt.a(close.o)
                                        0x546 (size before relaxing)
 .debug_str     0x0000000000001031        0xb ../lib/pegasus_crt.a(wait.o)
                                        0x54b (size before relaxing)
 .debug_str     0x000000000000103c        0xb ../lib/pegasus_crt.a(fork.o)
                                        0x544 (size before relaxing)
 .debug_str     0x0000000000001047       0x2d ../lib/pegasus_crt.a(exec.o)
                                        0x5c2 (size before relaxing)
 .debug_str     0x0000000000001074       0x32 ../lib/pegasus_crt.a(main.o)
                                        0x53e (size before relaxing)
 .debug_str     0x00000000000010a6      0x2a0 ../lib/pegasus_crt.a(exec.o)
                                        0x813 (size before relaxing)
 .debug_str     0x0000000000001346       0x80 ../lib/pegasus_crt.a(forkexit.o)
                                        0x5bd (size before relaxing)
 .debug_str     0x00000000000013c6      0x316 ../lib/pegasus_crt.a(mem.o)
                                        0xa3e (size before relaxing)
 .debug_str     0x00000000000016dc      0x200 ../lib/pegasus_crt.a(my_process.o)
                                        0x8a4 (size before relaxing)
 .debug_str     0x00000000000018dc       0x6c ../lib/pegasus_crt.a(thread.o)
                                        0x6bd (size before relaxing)
 .debug_str     0x0000000000001948      0x43a ../lib/pegasus_crt.a(fs_main.o)
                                        0xaa0 (size before relaxing)

.debug_loc
 *(.debug_loc)

.debug_macinfo
 *(.debug_macinfo)

.debug_weaknames
 *(.debug_weaknames)

.debug_funcnames
 *(.debug_funcnames)

.debug_typenames
 *(.debug_typenames)

.debug_varnames
 *(.debug_varnames)

.debug_pubtypes
 *(.debug_pubtypes)

.debug_ranges   0x0000000000000000       0x78
 *(.debug_ranges)
 .debug_ranges  0x0000000000000000       0x18 ../lib/pegasus_crt.a(kernel_main_old.o)
 .debug_ranges  0x0000000000000018       0x48 ../lib/pegasus_crt.a(hd.o)
 .debug_ranges  0x0000000000000060       0x18 ../lib/pegasus_crt.a(exec.o)

.debug_macro
 *(.debug_macro)

.debug_addr
 *(.debug_addr)

.gnu.attributes
 *(.gnu.attributes)

/DISCARD/
 *(.note.GNU-stack)
 *(.gnu_debuglink)
 *(.gnu.lto_*)
 *(.gnu_object_only)
OUTPUT(test elf32-i386)
