Archive member included to satisfy reference by file (symbol)

pegasus_crt.a(kernel_main_old.o)
                              test.o (Printf)
pegasus_crt.a(protect.o)      pegasus_crt.a(kernel_main_old.o) (InitInterruptDesc)
pegasus_crt.a(console.o)      pegasus_crt.a(kernel_main_old.o) (out_char)
pegasus_crt.a(keyboard.o)     pegasus_crt.a(console.o) (keyboard_read)
pegasus_crt.a(process.o)      pegasus_crt.a(kernel_main_old.o) (schedule_process)
pegasus_crt.a(mem.o)          pegasus_crt.a(kernel_main_old.o) (ptr_pde)
pegasus_crt.a(exec.o)         pegasus_crt.a(kernel_main_old.o) (execl)
pegasus_crt.a(exit.o)         start.o (exit)
pegasus_crt.a(wait.o)         pegasus_crt.a(kernel_main_old.o) (wait)
pegasus_crt.a(fork.o)         pegasus_crt.a(kernel_main_old.o) (fork)
pegasus_crt.a(read.o)         pegasus_crt.a(kernel_main_old.o) (read)
pegasus_crt.a(open.o)         pegasus_crt.a(kernel_main_old.o) (open)
pegasus_crt.a(write.o)        pegasus_crt.a(kernel_main_old.o) (write)
pegasus_crt.a(close.o)        pegasus_crt.a(kernel_main_old.o) (close)
pegasus_crt.a(kernel.o)       pegasus_crt.a(kernel_main_old.o) (disp_str)
pegasus_crt.a(switch_to.o)    pegasus_crt.a(process.o) (switch_to)
pegasus_crt.a(string.o)       pegasus_crt.a(kernel_main_old.o) (Memcpy2)
pegasus_crt.a(syscall.o)      pegasus_crt.a(kernel_main_old.o) (write_debug)
pegasus_crt.a(double_link_list.o)
                              pegasus_crt.a(mem.o) (initDoubleLinkList)
pegasus_crt.a(global.o)       pegasus_crt.a(protect.o) (proc_table)
pegasus_crt.a(task_network.o)
                              pegasus_crt.a(global.o) (task_network)
pegasus_crt.a(hd.o)           pegasus_crt.a(global.o) (TaskHD)
pegasus_crt.a(fs_main.o)      pegasus_crt.a(global.o) (task_fs)
pegasus_crt.a(main.o)         pegasus_crt.a(global.o) (TaskMM)
pegasus_crt.a(strcmp.o)       pegasus_crt.a(fs_main.o) (strcmp)
pegasus_crt.a(hd_rdwt.o)      pegasus_crt.a(hd.o) (read_port)
pegasus_crt.a(forkexit.o)     pegasus_crt.a(main.o) (do_fork)
pegasus_crt.a(exec.o)         pegasus_crt.a(main.o) (do_exec)
pegasus_crt.a(my_process.o)   pegasus_crt.a(forkexit.o) (fork_process)
pegasus_crt.a(thread.o)       pegasus_crt.a(my_process.o) (thread_init)

Merging program properties

Removed property 0xc0010001 to merge test.o (0x1) and start.o (not found)
Removed property 0xc0010002 to merge test.o (0x0) and start.o (not found)
Removed property 0xc0010001 to merge test.o (not found) and pegasus_crt.a(kernel_main_old.o) (0x1)
Removed property 0xc0010002 to merge test.o (not found) and pegasus_crt.a(kernel_main_old.o) (0x1)
Removed property 0xc0010001 to merge test.o (not found) and pegasus_crt.a(protect.o) (0x1)
Removed property 0xc0010002 to merge test.o (not found) and pegasus_crt.a(protect.o) (0x0)
Removed property 0xc0010001 to merge test.o (not found) and pegasus_crt.a(console.o) (0x1)
Removed property 0xc0010002 to merge test.o (not found) and pegasus_crt.a(console.o) (0x1)
Removed property 0xc0010001 to merge test.o (not found) and pegasus_crt.a(keyboard.o) (0x1)
Removed property 0xc0010002 to merge test.o (not found) and pegasus_crt.a(keyboard.o) (0x0)
Removed property 0xc0010001 to merge test.o (not found) and pegasus_crt.a(process.o) (0x1)
Removed property 0xc0010002 to merge test.o (not found) and pegasus_crt.a(process.o) (0x0)
Removed property 0xc0010001 to merge test.o (not found) and pegasus_crt.a(mem.o) (0x1)
Removed property 0xc0010002 to merge test.o (not found) and pegasus_crt.a(mem.o) (0x1)
Removed property 0xc0010001 to merge test.o (not found) and pegasus_crt.a(exec.o) (0x1)
Removed property 0xc0010002 to merge test.o (not found) and pegasus_crt.a(exec.o) (0x0)
Removed property 0xc0010001 to merge test.o (not found) and pegasus_crt.a(exit.o) (0x1)
Removed property 0xc0010002 to merge test.o (not found) and pegasus_crt.a(exit.o) (0x0)
Removed property 0xc0010001 to merge test.o (not found) and pegasus_crt.a(wait.o) (0x1)
Removed property 0xc0010002 to merge test.o (not found) and pegasus_crt.a(wait.o) (0x0)
Removed property 0xc0010001 to merge test.o (not found) and pegasus_crt.a(fork.o) (0x1)
Removed property 0xc0010002 to merge test.o (not found) and pegasus_crt.a(fork.o) (0x0)
Removed property 0xc0010001 to merge test.o (not found) and pegasus_crt.a(read.o) (0x1)
Removed property 0xc0010002 to merge test.o (not found) and pegasus_crt.a(read.o) (0x0)
Removed property 0xc0010001 to merge test.o (not found) and pegasus_crt.a(open.o) (0x1)
Removed property 0xc0010002 to merge test.o (not found) and pegasus_crt.a(open.o) (0x0)
Removed property 0xc0010001 to merge test.o (not found) and pegasus_crt.a(write.o) (0x1)
Removed property 0xc0010002 to merge test.o (not found) and pegasus_crt.a(write.o) (0x0)
Removed property 0xc0010001 to merge test.o (not found) and pegasus_crt.a(close.o) (0x1)
Removed property 0xc0010002 to merge test.o (not found) and pegasus_crt.a(close.o) (0x0)
Removed property 0xc0010001 to merge test.o (not found) and pegasus_crt.a(double_link_list.o) (0x1)
Removed property 0xc0010002 to merge test.o (not found) and pegasus_crt.a(double_link_list.o) (0x0)
Removed property 0xc0010001 to merge test.o (not found) and pegasus_crt.a(global.o) (0x1)
Removed property 0xc0010002 to merge test.o (not found) and pegasus_crt.a(global.o) (0x0)
Removed property 0xc0010001 to merge test.o (not found) and pegasus_crt.a(task_network.o) (0x1)
Removed property 0xc0010002 to merge test.o (not found) and pegasus_crt.a(task_network.o) (0x0)
Removed property 0xc0010001 to merge test.o (not found) and pegasus_crt.a(hd.o) (0x1)
Removed property 0xc0010002 to merge test.o (not found) and pegasus_crt.a(hd.o) (0x1)
Removed property 0xc0010001 to merge test.o (not found) and pegasus_crt.a(fs_main.o) (0x1)
Removed property 0xc0010002 to merge test.o (not found) and pegasus_crt.a(fs_main.o) (0x1)
Removed property 0xc0010001 to merge test.o (not found) and pegasus_crt.a(main.o) (0x1)
Removed property 0xc0010002 to merge test.o (not found) and pegasus_crt.a(main.o) (0x0)
Removed property 0xc0010001 to merge test.o (not found) and pegasus_crt.a(strcmp.o) (0x1)
Removed property 0xc0010002 to merge test.o (not found) and pegasus_crt.a(strcmp.o) (0x1)
Removed property 0xc0010001 to merge test.o (not found) and pegasus_crt.a(forkexit.o) (0x1)
Removed property 0xc0010002 to merge test.o (not found) and pegasus_crt.a(forkexit.o) (0x0)
Removed property 0xc0010001 to merge test.o (not found) and pegasus_crt.a(exec.o) (0x1)
Removed property 0xc0010002 to merge test.o (not found) and pegasus_crt.a(exec.o) (0x0)
Removed property 0xc0010001 to merge test.o (not found) and pegasus_crt.a(my_process.o) (0x1)
Removed property 0xc0010002 to merge test.o (not found) and pegasus_crt.a(my_process.o) (0x1)
Removed property 0xc0010001 to merge test.o (not found) and pegasus_crt.a(thread.o) (0x1)
Removed property 0xc0010002 to merge test.o (not found) and pegasus_crt.a(thread.o) (0x0)

Allocating common symbols
Common symbol       size              file

current_tty         0x4               pegasus_crt.a(kernel_main_old.o)
file_desc_table     0x400             pegasus_crt.a(fs_main.o)
is_e0               0x1               pegasus_crt.a(kernel_main_old.o)
phy_super_block_buf
                    0x4               pegasus_crt.a(fs_main.o)
phy_fsbuf           0x4               pegasus_crt.a(fs_main.o)
idt_ptr             0x6               pegasus_crt.a(kernel_main_old.o)
pid                 0x4               pegasus_crt.a(kernel_main_old.o)
KernelVirtualMemory
                    0xc               pegasus_crt.a(kernel_main_old.o)
inode_table         0xa00             pegasus_crt.a(fs_main.o)
current_dis_pos     0x4               pegasus_crt.a(kernel_main_old.o)
dis_pos             0x4               pegasus_crt.a(kernel_main_old.o)
k_reenter           0x4               pegasus_crt.a(kernel_main_old.o)
super_block_buf     0x4               pegasus_crt.a(fs_main.o)
gdt                 0x400             pegasus_crt.a(kernel_main_old.o)
proc_ready_table    0x4               pegasus_crt.a(kernel_main_old.o)
test_ticks          0x4               pegasus_crt.a(kernel_main_old.o)
hd_info             0x224             pegasus_crt.a(hd.o)
proc_stack          0x90000           pegasus_crt.a(global.o)
pcaller             0x4               pegasus_crt.a(kernel_main_old.o)
keyboard_buffer     0x20c             pegasus_crt.a(kernel_main_old.o)
pcb_list            0x10              pegasus_crt.a(kernel_main_old.o)
gdt_index           0x4               pegasus_crt.a(kernel_main_old.o)
tty_table           0x828             pegasus_crt.a(kernel_main_old.o)
tss                 0x6c              pegasus_crt.a(kernel_main_old.o)
KernelPool          0x10              pegasus_crt.a(kernel_main_old.o)
net_buf             0x4               pegasus_crt.a(kernel_main_old.o)
fsbuf               0x4               pegasus_crt.a(fs_main.o)
nic_current_page    0x1               pegasus_crt.a(kernel_main_old.o)
root                0x28              pegasus_crt.a(fs_main.o)
kernel_mem_block_decs_array
                    0xf0              pegasus_crt.a(mem.o)
counter             0x4               pegasus_crt.a(kernel_main_old.o)
key_pressed         0x4               pegasus_crt.a(kernel_main_old.o)
fork_pid            0x4               pegasus_crt.a(kernel_main_old.o)
is_shift            0x1               pegasus_crt.a(kernel_main_old.o)
net_data            0x1               pegasus_crt.a(kernel_main_old.o)
gdt_ptr             0x6               pegasus_crt.a(kernel_main_old.o)
idt                 0x800             pegasus_crt.a(kernel_main_old.o)
main_thread         0x4               pegasus_crt.a(kernel_main_old.o)
ticks               0x8               pegasus_crt.a(kernel_main_old.o)
is_init             0x1               pegasus_crt.a(kernel_main_old.o)
UserPool            0x10              pegasus_crt.a(kernel_main_old.o)
all_pcb_list        0x10              pegasus_crt.a(kernel_main_old.o)
console_table       0x10              pegasus_crt.a(kernel_main_old.o)
is_disp             0x1               pegasus_crt.a(kernel_main_old.o)
MAIN_THREAD_PAGE_DIRECTORY
                    0x4               pegasus_crt.a(kernel_main_old.o)
helloStr            0xc               pegasus_crt.a(kernel_main_old.o)
proc_table          0x1e14            pegasus_crt.a(global.o)
hd_cache            0x200             pegasus_crt.a(hd.o)

Discarded input sections

 .note.GNU-stack
                0x00000000        0x0 test.o
 .note.gnu.property
                0x00000000       0x28 test.o
 .note.GNU-stack
                0x00000000        0x0 pegasus_crt.a(kernel_main_old.o)
 .note.gnu.property
                0x00000000       0x28 pegasus_crt.a(kernel_main_old.o)
 .note.GNU-stack
                0x00000000        0x0 pegasus_crt.a(protect.o)
 .note.gnu.property
                0x00000000       0x28 pegasus_crt.a(protect.o)
 .note.GNU-stack
                0x00000000        0x0 pegasus_crt.a(console.o)
 .note.gnu.property
                0x00000000       0x28 pegasus_crt.a(console.o)
 .note.GNU-stack
                0x00000000        0x0 pegasus_crt.a(keyboard.o)
 .note.gnu.property
                0x00000000       0x28 pegasus_crt.a(keyboard.o)
 .note.GNU-stack
                0x00000000        0x0 pegasus_crt.a(process.o)
 .note.gnu.property
                0x00000000       0x28 pegasus_crt.a(process.o)
 .note.GNU-stack
                0x00000000        0x0 pegasus_crt.a(mem.o)
 .note.gnu.property
                0x00000000       0x28 pegasus_crt.a(mem.o)
 .note.GNU-stack
                0x00000000        0x0 pegasus_crt.a(exec.o)
 .note.gnu.property
                0x00000000       0x28 pegasus_crt.a(exec.o)
 .note.GNU-stack
                0x00000000        0x0 pegasus_crt.a(exit.o)
 .note.gnu.property
                0x00000000       0x28 pegasus_crt.a(exit.o)
 .note.GNU-stack
                0x00000000        0x0 pegasus_crt.a(wait.o)
 .note.gnu.property
                0x00000000       0x28 pegasus_crt.a(wait.o)
 .note.GNU-stack
                0x00000000        0x0 pegasus_crt.a(fork.o)
 .note.gnu.property
                0x00000000       0x28 pegasus_crt.a(fork.o)
 .note.GNU-stack
                0x00000000        0x0 pegasus_crt.a(read.o)
 .note.gnu.property
                0x00000000       0x28 pegasus_crt.a(read.o)
 .note.GNU-stack
                0x00000000        0x0 pegasus_crt.a(open.o)
 .note.gnu.property
                0x00000000       0x28 pegasus_crt.a(open.o)
 .note.GNU-stack
                0x00000000        0x0 pegasus_crt.a(write.o)
 .note.gnu.property
                0x00000000       0x28 pegasus_crt.a(write.o)
 .note.GNU-stack
                0x00000000        0x0 pegasus_crt.a(close.o)
 .note.gnu.property
                0x00000000       0x28 pegasus_crt.a(close.o)
 .note.GNU-stack
                0x00000000        0x0 pegasus_crt.a(double_link_list.o)
 .note.gnu.property
                0x00000000       0x28 pegasus_crt.a(double_link_list.o)
 .note.GNU-stack
                0x00000000        0x0 pegasus_crt.a(global.o)
 .note.gnu.property
                0x00000000       0x28 pegasus_crt.a(global.o)
 .note.GNU-stack
                0x00000000        0x0 pegasus_crt.a(task_network.o)
 .note.gnu.property
                0x00000000       0x28 pegasus_crt.a(task_network.o)
 .note.GNU-stack
                0x00000000        0x0 pegasus_crt.a(hd.o)
 .note.gnu.property
                0x00000000       0x28 pegasus_crt.a(hd.o)
 .note.GNU-stack
                0x00000000        0x0 pegasus_crt.a(fs_main.o)
 .note.gnu.property
                0x00000000       0x28 pegasus_crt.a(fs_main.o)
 .note.GNU-stack
                0x00000000        0x0 pegasus_crt.a(main.o)
 .note.gnu.property
                0x00000000       0x28 pegasus_crt.a(main.o)
 .note.GNU-stack
                0x00000000        0x0 pegasus_crt.a(strcmp.o)
 .note.gnu.property
                0x00000000       0x28 pegasus_crt.a(strcmp.o)
 .note.GNU-stack
                0x00000000        0x0 pegasus_crt.a(forkexit.o)
 .note.gnu.property
                0x00000000       0x28 pegasus_crt.a(forkexit.o)
 .note.GNU-stack
                0x00000000        0x0 pegasus_crt.a(exec.o)
 .note.gnu.property
                0x00000000       0x28 pegasus_crt.a(exec.o)
 .note.GNU-stack
                0x00000000        0x0 pegasus_crt.a(my_process.o)
 .note.gnu.property
                0x00000000       0x28 pegasus_crt.a(my_process.o)
 .note.GNU-stack
                0x00000000        0x0 pegasus_crt.a(thread.o)
 .note.gnu.property
                0x00000000       0x28 pegasus_crt.a(thread.o)

Memory Configuration

Name             Origin             Length             Attributes
*default*        0x00000000         0xffffffff

Linker script and memory map

Address of section .text set to 0xb0800000
LOAD test.o
LOAD start.o
LOAD pegasus_crt.a
                [!provide]                        PROVIDE (__executable_start = SEGMENT_START ("text-segment", 0x8048000))
                0x080480d4                        . = (SEGMENT_START ("text-segment", 0x8048000) + SIZEOF_HEADERS)

.interp
 *(.interp)

.note.gnu.build-id
 *(.note.gnu.build-id)

.hash
 *(.hash)

.gnu.hash
 *(.gnu.hash)

.dynsym
 *(.dynsym)

.dynstr
 *(.dynstr)

.gnu.version
 *(.gnu.version)

.gnu.version_d
 *(.gnu.version_d)

.gnu.version_r
 *(.gnu.version_r)

.rel.dyn        0x080480d4        0x0
 *(.rel.init)
 *(.rel.text .rel.text.* .rel.gnu.linkonce.t.*)
 .rel.text      0x080480d4        0x0 test.o
 *(.rel.fini)
 *(.rel.rodata .rel.rodata.* .rel.gnu.linkonce.r.*)
 *(.rel.data.rel.ro .rel.data.rel.ro.* .rel.gnu.linkonce.d.rel.ro.*)
 *(.rel.data .rel.data.* .rel.gnu.linkonce.d.*)
 *(.rel.tdata .rel.tdata.* .rel.gnu.linkonce.td.*)
 *(.rel.tbss .rel.tbss.* .rel.gnu.linkonce.tb.*)
 *(.rel.ctors)
 *(.rel.dtors)
 *(.rel.got)
 .rel.got       0x080480d4        0x0 test.o
 *(.rel.bss .rel.bss.* .rel.gnu.linkonce.b.*)
 *(.rel.ifunc)

.rel.plt        0x080480d4        0x0
 *(.rel.plt)
                [!provide]                        PROVIDE (__rel_iplt_start = .)
 *(.rel.iplt)
 .rel.iplt      0x080480d4        0x0 test.o
                [!provide]                        PROVIDE (__rel_iplt_end = .)

.relr.dyn
 *(.relr.dyn)
                0x08049000                        . = ALIGN (CONSTANT (MAXPAGESIZE))

.init
 *(SORT_NONE(.init))

.plt            0x08049000        0x0
 *(.plt)
 *(.iplt)
 .iplt          0x08049000        0x0 test.o

.plt.got
 *(.plt.got)

.plt.sec
 *(.plt.sec)

.text           0xb0800000     0xa31b
 *(.text.unlikely .text.*_unlikely .text.unlikely.*)
 *(.text.exit .text.exit.*)
 *(.text.startup .text.startup.*)
 *(.text.hot .text.hot.*)
 *(SORT_BY_NAME(.text.sorted.*))
 *(.text .stub .text.* .gnu.linkonce.t.*)
 .text          0xb0800000       0x3e test.o
                0xb0800000                main
 *fill*         0xb080003e        0x2 
 .text          0xb0800040       0x15 start.o
                0xb0800040                _start
 .text          0xb0800055     0x2d79 pegasus_crt.a(kernel_main_old.o)
                0xb0800055                stop_here
                0xb0800099                catch_error
                0xb08000b6                intr_enable
                0xb08000df                intr_disable
                0xb0800108                intr_set_status
                0xb0800126                intr_get_status
                0xb0800143                Memcpy
                0xb0800176                untar
                0xb080048b                atoi
                0xb0800531                disp_int
                0xb080055a                do_page_fault
                0xb0800697                exception_handler
                0xb080087e                init_internal_interrupt
                0xb08009f3                spurious_irq
                0xb0800a81                init_keyboard
                0xb0800ac4                TestTTY
                0xb0800b63                TestReadReturnValue
                0xb0800be0                TestWriteReturnValue
                0xb0800cb4                TestFS2
                0xb0800cc2                TestFS
                0xb0801164                wait_exit
                0xb0801262                INIT_fork
                0xb080155a                simple_shell
                0xb08016e1                test_shell
                0xb0801749                test_exec
                0xb0801889                INIT
                0xb0801896                TestA
                0xb08018cb                delay
                0xb080190f                TestB
                0xb0801927                TestC
                0xb080195a                sys_get_ticks
                0xb080196a                sys_write
                0xb08019be                milli_delay
                0xb08019fa                TaskSys
                0xb08019ff                Printf
                0xb0801a5d                sprintf
                0xb0801a89                vsprintf
                0xb0801c35                printx
                0xb0801c78                sys_printx
                0xb0801d44                spin
                0xb0801d6a                panic
                0xb0801d88                assertion_failure
                0xb0801dfa                assertion_failure2
                0xb0801e6f                dead_lock
                0xb0801e79                sys_send_msg
                0xb0802398                sys_receive_msg
                0xb08029f8                send_rec
                0xb0802af3                block
                0xb0802b2f                unblock
                0xb0802b7f                get_ticks_ipc
                0xb0802bd6                itoa
                0xb0802c2c                i2a
                0xb0802c92                inform_int
                0xb0802d5f                deprecate_strcmp
 .text          0xb0802dce      0x3b3 pegasus_crt.a(protect.o)
                0xb0802dce                InitDescriptor
                0xb0802e3b                Seg2PhyAddr
                0xb0802e7c                Seg2PhyAddrLDT
                0xb0802ec0                VirAddr2PhyAddr
                0xb0802ed6                v2l
                0xb0802f19                init_propt
                0xb080309a                InitInterruptDesc
                0xb08030f6                ReloadGDT
 .text          0xb0803181      0xaca pegasus_crt.a(console.o)
                0xb0803181                select_console
                0xb08031bd                flush
                0xb08031f6                set_cursor
                0xb0803254                set_console_start_video_addr
                0xb08032b2                put_key
                0xb080331e                scroll_up
                0xb0803360                scroll_down
                0xb08033cb                out_char
                0xb0803588                tty_dev_read
                0xb08035b2                tty_dev_write
                0xb08037df                tty_do_read
                0xb08038a7                tty_do_write
                0xb0803a0a                init_screen
                0xb0803a93                init_tty
                0xb0803b48                TaskTTY
 .text          0xb0803c4b      0x40f pegasus_crt.a(keyboard.o)
                0xb0803c4b                keyboard_handler
                0xb0803ccf                read_from_keyboard_buf
                0xb0803d35                keyboard_read
                0xb0803eb4                init_keyboard_handler
                0xb0803ec8                in_process
 .text          0xb080405a      0x21b pegasus_crt.a(process.o)
                0xb080405a                schedule_process
                0xb0804167                clock_handler
                0xb08041d8                pid2proc
                0xb080425e                proc2pid
 .text          0xb0804275     0x1270 pegasus_crt.a(mem.o)
                0xb0804275                init_bitmap
                0xb0804298                test_bit_val
                0xb0804301                set_bit_val
                0xb080437c                set_bits
                0xb08043b6                get_first_free_bit
                0xb08043fa                get_bits
                0xb08044c2                get_a_page
                0xb0804576                get_virtual_address_start_with_addr
                0xb0804610                get_virtual_address
                0xb08046a0                ptr_pde
                0xb08046b3                ptr_pte
                0xb08046da                add_map_entry
                0xb080476b                alloc_virtual_memory
                0xb080483e                get_physical_address_proc
                0xb08048ba                get_physical_address
                0xb08048ec                alloc_physical_memory_of_proc
                0xb08049db                alloc_physical_memory
                0xb0804aa3                alloc_memory
                0xb0804b05                get_a_virtual_page
                0xb0804b3d                block2arena
                0xb0804b53                sys_malloc2
                0xb0804e09                remove_map_entry
                0xb0804e2a                free_a_page
                0xb0804ed1                sys_free2
                0xb0805059                init_memory_block_desc
                0xb080512a                init_memory2
                0xb08053a1                init_memory
 .text          0xb08054e5      0x285 pegasus_crt.a(exec.o)
                0xb08054e5                exec
                0xb0805556                execv
                0xb0805745                execl
 .text          0xb080576a       0x2f pegasus_crt.a(exit.o)
                0xb080576a                exit
 .text          0xb0805799       0x44 pegasus_crt.a(wait.o)
                0xb0805799                wait
 .text          0xb08057dd       0x48 pegasus_crt.a(fork.o)
                0xb08057dd                fork
 .text          0xb0805825      0x181 pegasus_crt.a(read.o)
                0xb0805825                read
 .text          0xb08059a6       0x95 pegasus_crt.a(open.o)
                0xb08059a6                open
 .text          0xb0805a3b       0x85 pegasus_crt.a(write.o)
                0xb0805a3b                write
 .text          0xb0805ac0       0x52 pegasus_crt.a(close.o)
                0xb0805ac0                close
 *fill*         0xb0805b12        0xe 
 .text          0xb0805b20      0x3d7 pegasus_crt.a(kernel.o)
                0xb0805b20                InterruptTest
                0xb0805b2c                disp_str_len
                0xb0805b79                disp_str
                0xb0805bb4                disp_str_colour
                0xb0805bf0                divide_zero_fault
                0xb0805bf6                single_step_fault
                0xb0805bfc                non_maskable_interrupt
                0xb0805c02                breakpoint_trap
                0xb0805c08                overflow_trap
                0xb0805c0e                bound_range_exceeded_fault
                0xb0805c14                invalid_opcode_fault
                0xb0805c1a                coprocessor_not_available_fault
                0xb0805c20                double_fault_exception_abort
                0xb0805c24                coprocessor_segment_overrun
                0xb0805c2a                invalid_task_state_segment_fault
                0xb0805c2e                segment_not_present_fault
                0xb0805c32                stack_exception_fault
                0xb0805c36                general_protection_exception_fault
                0xb0805c41                page_fault
                0xb0805c45                coprocessor_error_fault
                0xb0805c4b                align_check_fault
                0xb0805c4f                simd_float_exception_fault
                0xb0805c5e                hwint0
                0xb0805c8e                hwint1
                0xb0805cd1                hwint14
                0xb0805d17                hwint10
                0xb0805d5a                sys_call
                0xb0805da0                fork_restart
                0xb0805daf                restart
                0xb0805dd2                in_byte
                0xb0805dde                out_byte
                0xb0805e00                disable_int
                0xb0805e02                enable_int
                0xb0805e98                enable_8259A_casecade_irq
                0xb0805ea2                disable_8259A_casecade_irq
                0xb0805eac                enable_8259A_slave_winchester_irq
                0xb0805eb6                disable_8259A_slave_winchester_irq
                0xb0805ec0                update_cr3
                0xb0805ecd                update_tss
                0xb0805edc                get_running_thread_pcb
                0xb0805ee4                sys_call_test
                0xb0805ee7                enable_8259A_slave_net_irq
 *fill*         0xb0805ef7        0x9 
 .text          0xb0805f00       0x15 pegasus_crt.a(switch_to.o)
                0xb0805f00                switch_to
 *fill*         0xb0805f15        0xb 
 .text          0xb0805f20       0x69 pegasus_crt.a(syscall.o)
                0xb0805f20                write_debug
                0xb0805f30                send_msg
                0xb0805f46                receive_msg
                0xb0805f5c                sys_malloc
                0xb0805f71                sys_free
 .text          0xb0805f89      0x329 pegasus_crt.a(double_link_list.o)
                0xb0805f89                initDoubleLinkList
                0xb0805fb7                isListEmpty
                0xb0805fd8                findElementInList
                0xb08060b4                appendToDoubleLinkList
                0xb080619b                insertToDoubleLinkList
                0xb080621e                popFromDoubleLinkList
 .text          0xb08062b2        0x0 pegasus_crt.a(global.o)
 .text          0xb08062b2       0x75 pegasus_crt.a(task_network.o)
                0xb08062b2                task_network
                0xb0806322                task_netdev_rx
 .text          0xb0806327      0xe63 pegasus_crt.a(hd.o)
                0xb0806327                TaskHD
                0xb080636c                init_hd
                0xb0806386                hd_handle
                0xb080648b                hd_cmd_out
                0xb080658d                hd_identify
                0xb0806644                print_hdinfo
                0xb08067d2                print_dpt_entry
                0xb080683e                get_partition_table
                0xb080691d                partition
                0xb0806b37                hd_open
                0xb0806bde                get_hd_ioctl
                0xb0806c8f                wait_for
                0xb0806cc0                interrupt_wait
                0xb0806d10                hd_rdwt
                0xb0806faf                hd_handler
                0xb0806fdb                debug_ticks
                0xb0807019                net_handler
                0xb0807021                waitfor
                0xb0807065                print_hd_info
                0xb0807152                is_empty
 .text          0xb080718a     0x204f pegasus_crt.a(fs_main.o)
                0xb080718a                task_fs
                0xb0807395                rd_wt
                0xb080746e                mkfs
                0xb0807a50                init_fs
                0xb0807aa4                do_open
                0xb0807c93                search_file
                0xb0807dc5                strip_path
                0xb0807e91                get_inode
                0xb0808053                create_file
                0xb080815e                alloc_imap_bit
                0xb080825b                alloc_smap_bit
                0xb08083fc                new_inode
                0xb080851a                new_dir_entry
                0xb0808726                do_unlink
                0xb0808c02                do_rdwt
                0xb0808f8d                sync_inode
                0xb08090e1                put_inode
                0xb080911f                do_close
                0xb0809171                get_super_block
 .text          0xb08091d9      0x148 pegasus_crt.a(main.o)
                0xb08091d9                TaskMM
                0xb0809302                alloc_mem
 .text          0xb0809321       0x8e pegasus_crt.a(strcmp.o)
                0xb0809321                strcmp
 .text          0xb08093af      0x271 pegasus_crt.a(forkexit.o)
                0xb08093af                do_fork
                0xb080941d                do_exit
                0xb08094a7                do_wait
                0xb08095c6                cleanup
 .text          0xb0809620      0x419 pegasus_crt.a(exec.o)
                0xb0809620                do_exec
 .text          0xb0809a39      0x730 pegasus_crt.a(my_process.o)
                0xb0809a39                create_user_process_address_space
                0xb0809ac9                user_process
                0xb0809bf6                clone_pcb
                0xb0809d68                build_body_stack
                0xb0809e9b                build_process_kernel_stack
                0xb0809f5e                fork_process
                0xb0809fef                process_execute
 .text          0xb080a169      0x1b2 pegasus_crt.a(thread.o)
                0xb080a169                kernel_thread
                0xb080a181                thread_init
                0xb080a22e                thread_create
                0xb080a263                thread_start
 *(.gnu.warning)

.fini
 *(SORT_NONE(.fini))
                [!provide]                        PROVIDE (__etext = .)
                [!provide]                        PROVIDE (_etext = .)
                [!provide]                        PROVIDE (etext = .)
                0xb080b000                        . = ALIGN (CONSTANT (MAXPAGESIZE))
                0xb080b000                        . = SEGMENT_START ("rodata-segment", (ALIGN (CONSTANT (MAXPAGESIZE)) + (. & (CONSTANT (MAXPAGESIZE) - 0x1))))

.rodata         0xb080b000     0x106d
 *(.rodata .rodata.* .gnu.linkonce.r.*)
 .rodata        0xb080b000       0x10 test.o
 *fill*         0xb080b010       0x10 
 .rodata        0xb080b020      0xb75 pegasus_crt.a(kernel_main_old.o)
 .rodata        0xb080bb95       0x22 pegasus_crt.a(console.o)
 .rodata        0xb080bbb7       0x26 pegasus_crt.a(process.o)
 .rodata        0xb080bbdd       0x41 pegasus_crt.a(mem.o)
 .rodata        0xb080bc1e       0x2d pegasus_crt.a(exec.o)
 .rodata        0xb080bc4b       0x2a pegasus_crt.a(close.o)
 .rodata        0xb080bc75       0x2c pegasus_crt.a(double_link_list.o)
 *fill*         0xb080bca1        0x3 
 .rodata        0xb080bca4      0x19c pegasus_crt.a(hd.o)
 .rodata        0xb080be40      0x1eb pegasus_crt.a(fs_main.o)
                0xb080be40                FSBUF_SIZE
 .rodata        0xb080c02b       0x11 pegasus_crt.a(main.o)
 .rodata        0xb080c03c       0x21 pegasus_crt.a(forkexit.o)
 .rodata        0xb080c05d       0x10 pegasus_crt.a(exec.o)

.txt            0xb080c06d       0xaa
 .txt           0xb080c06d       0x82 pegasus_crt.a(string.o)
                0xb080c06d                Memcpy2
                0xb080c09b                Memset
                0xb080c0ba                Strcpy
                0xb080c0d4                Strlen
 .txt           0xb080c0ef       0x28 pegasus_crt.a(hd_rdwt.o)
                0xb080c0ef                read_port
                0xb080c103                write_port

.rodata1
 *(.rodata1)

.eh_frame_hdr
 *(.eh_frame_hdr)
 *(.eh_frame_entry .eh_frame_entry.*)

.eh_frame       0xb080c118     0x1808
 *(.eh_frame)
 .eh_frame      0xb080c118       0x44 test.o
 .eh_frame      0xb080c15c      0x6cc pegasus_crt.a(kernel_main_old.o)
                                0x6e4 (size before relaxing)
 .eh_frame      0xb080c828      0x100 pegasus_crt.a(protect.o)
                                0x118 (size before relaxing)
 .eh_frame      0xb080c928      0x1e0 pegasus_crt.a(console.o)
                                0x1f8 (size before relaxing)
 .eh_frame      0xb080cb08       0xa0 pegasus_crt.a(keyboard.o)
                                 0xb8 (size before relaxing)
 .eh_frame      0xb080cba8       0x80 pegasus_crt.a(process.o)
                                 0x98 (size before relaxing)
 .eh_frame      0xb080cc28      0x364 pegasus_crt.a(mem.o)
                                0x37c (size before relaxing)
 .eh_frame      0xb080cf8c       0x60 pegasus_crt.a(exec.o)
                                 0x78 (size before relaxing)
 .eh_frame      0xb080cfec       0x20 pegasus_crt.a(exit.o)
                                 0x38 (size before relaxing)
 .eh_frame      0xb080d00c       0x20 pegasus_crt.a(wait.o)
                                 0x38 (size before relaxing)
 .eh_frame      0xb080d02c       0x20 pegasus_crt.a(fork.o)
                                 0x38 (size before relaxing)
 .eh_frame      0xb080d04c       0x20 pegasus_crt.a(read.o)
                                 0x38 (size before relaxing)
 .eh_frame      0xb080d06c       0x20 pegasus_crt.a(open.o)
                                 0x38 (size before relaxing)
 .eh_frame      0xb080d08c       0x20 pegasus_crt.a(write.o)
                                 0x38 (size before relaxing)
 .eh_frame      0xb080d0ac       0x20 pegasus_crt.a(close.o)
                                 0x38 (size before relaxing)
 .eh_frame      0xb080d0cc       0xc0 pegasus_crt.a(double_link_list.o)
                                 0xd8 (size before relaxing)
 .eh_frame      0xb080d18c       0x38 pegasus_crt.a(task_network.o)
                                 0x50 (size before relaxing)
 .eh_frame      0xb080d1c4      0x284 pegasus_crt.a(hd.o)
                                0x29c (size before relaxing)
 .eh_frame      0xb080d448      0x27c pegasus_crt.a(fs_main.o)
                                0x294 (size before relaxing)
 .eh_frame      0xb080d6c4       0x3c pegasus_crt.a(main.o)
                                 0x54 (size before relaxing)
 .eh_frame      0xb080d700       0x20 pegasus_crt.a(strcmp.o)
                                 0x38 (size before relaxing)
 .eh_frame      0xb080d720       0x80 pegasus_crt.a(forkexit.o)
                                 0x98 (size before relaxing)
 .eh_frame      0xb080d7a0       0x20 pegasus_crt.a(exec.o)
                                 0x38 (size before relaxing)
 .eh_frame      0xb080d7c0       0xe0 pegasus_crt.a(my_process.o)
                                 0xf8 (size before relaxing)
 .eh_frame      0xb080d8a0       0x80 pegasus_crt.a(thread.o)
                                 0x98 (size before relaxing)
 *(.eh_frame.*)

.sframe
 *(.sframe)
 *(.sframe.*)

.gcc_except_table
 *(.gcc_except_table .gcc_except_table.*)

.gnu_extab
 *(.gnu_extab*)

.exception_ranges
 *(.exception_ranges*)
                0xb080e000                        . = DATA_SEGMENT_ALIGN (CONSTANT (MAXPAGESIZE), CONSTANT (COMMONPAGESIZE))

.eh_frame
 *(.eh_frame)
 *(.eh_frame.*)

.sframe
 *(.sframe)
 *(.sframe.*)

.gnu_extab
 *(.gnu_extab)

.gcc_except_table
 *(.gcc_except_table .gcc_except_table.*)

.exception_ranges
 *(.exception_ranges*)

.tdata          0xb080e000        0x0
                [!provide]                        PROVIDE (__tdata_start = .)
 *(.tdata .tdata.* .gnu.linkonce.td.*)

.tbss
 *(.tbss .tbss.* .gnu.linkonce.tb.*)
 *(.tcommon)

.preinit_array  0xb080e000        0x0
                [!provide]                        PROVIDE (__preinit_array_start = .)
 *(.preinit_array)
                [!provide]                        PROVIDE (__preinit_array_end = .)

.init_array     0xb080e000        0x0
                [!provide]                        PROVIDE (__init_array_start = .)
 *(SORT_BY_INIT_PRIORITY(.init_array.*) SORT_BY_INIT_PRIORITY(.ctors.*))
 *(.init_array EXCLUDE_FILE(*crtend?.o *crtend.o *crtbegin?.o *crtbegin.o) .ctors)
                [!provide]                        PROVIDE (__init_array_end = .)

.fini_array     0xb080e000        0x0
                [!provide]                        PROVIDE (__fini_array_start = .)
 *(SORT_BY_INIT_PRIORITY(.fini_array.*) SORT_BY_INIT_PRIORITY(.dtors.*))
 *(.fini_array EXCLUDE_FILE(*crtend?.o *crtend.o *crtbegin?.o *crtbegin.o) .dtors)
                [!provide]                        PROVIDE (__fini_array_end = .)

.ctors
 *crtbegin.o(.ctors)
 *crtbegin?.o(.ctors)
 *(EXCLUDE_FILE(*crtend?.o *crtend.o) .ctors)
 *(SORT_BY_NAME(.ctors.*))
 *(.ctors)

.dtors
 *crtbegin.o(.dtors)
 *crtbegin?.o(.dtors)
 *(EXCLUDE_FILE(*crtend?.o *crtend.o) .dtors)
 *(SORT_BY_NAME(.dtors.*))
 *(.dtors)

.jcr
 *(.jcr)

.data.rel.ro
 *(.data.rel.ro.local* .gnu.linkonce.d.rel.ro.local.*)
 *(.data.rel.ro .data.rel.ro.* .gnu.linkonce.d.rel.ro.*)

.dynamic
 *(.dynamic)

.got            0xb080e000        0x0
 *(.got)
 .got           0xb080e000        0x0 test.o
 *(.igot)
                0xb080e000                        . = DATA_SEGMENT_RELRO_END (., (SIZEOF (.got.plt) >= 0xc)?0xc:0x0)

.got.plt        0xb080e000        0x0
 *(.got.plt)
 .got.plt       0xb080e000        0x0 test.o
 *(.igot.plt)
 .igot.plt      0xb080e000        0x0 test.o

.data           0xb080e000      0x780
 *(.data .data.* .gnu.linkonce.d.*)
 .data          0xb080e000        0x0 test.o
 .data          0xb080e000        0x0 pegasus_crt.a(kernel_main_old.o)
 .data          0xb080e000        0x0 pegasus_crt.a(protect.o)
 .data          0xb080e000        0x0 pegasus_crt.a(console.o)
 .data          0xb080e000      0x600 pegasus_crt.a(keyboard.o)
                0xb080e000                keymap
 .data          0xb080e600        0x0 pegasus_crt.a(process.o)
 .data          0xb080e600        0x0 pegasus_crt.a(mem.o)
 .data          0xb080e600        0x0 pegasus_crt.a(exec.o)
 .data          0xb080e600        0x0 pegasus_crt.a(exit.o)
 .data          0xb080e600        0x0 pegasus_crt.a(wait.o)
 .data          0xb080e600        0x0 pegasus_crt.a(fork.o)
 .data          0xb080e600        0x0 pegasus_crt.a(read.o)
 .data          0xb080e600        0x0 pegasus_crt.a(open.o)
 .data          0xb080e600        0x0 pegasus_crt.a(write.o)
 .data          0xb080e600        0x0 pegasus_crt.a(close.o)
 .data          0xb080e600        0xf pegasus_crt.a(kernel.o)
 *fill*         0xb080e60f        0x1 
 .data          0xb080e610        0x0 pegasus_crt.a(syscall.o)
 .data          0xb080e610        0x0 pegasus_crt.a(double_link_list.o)
 *fill*         0xb080e610       0x10 
 .data          0xb080e620      0x160 pegasus_crt.a(global.o)
                0xb080e620                user_task_table
                0xb080e6a0                sys_task_table
                0xb080e764                sys_call_table
 .data          0xb080e780        0x0 pegasus_crt.a(task_network.o)
 .data          0xb080e780        0x0 pegasus_crt.a(hd.o)
 .data          0xb080e780        0x0 pegasus_crt.a(fs_main.o)
 .data          0xb080e780        0x0 pegasus_crt.a(main.o)
 .data          0xb080e780        0x0 pegasus_crt.a(strcmp.o)
 .data          0xb080e780        0x0 pegasus_crt.a(forkexit.o)
 .data          0xb080e780        0x0 pegasus_crt.a(exec.o)
 .data          0xb080e780        0x0 pegasus_crt.a(my_process.o)
 .data          0xb080e780        0x0 pegasus_crt.a(thread.o)

.data1
 *(.data1)
                0xb080e780                        _edata = .
                [!provide]                        PROVIDE (edata = .)
                0xb080e780                        . = .
                0xb080e780                        __bss_start = .

.bss            0xb080e780    0x951a8
 *(.dynbss)
 *(.bss .bss.* .gnu.linkonce.b.*)
 .bss           0xb080e780        0x0 test.o
 .bss           0xb080e780        0x0 pegasus_crt.a(kernel_main_old.o)
 .bss           0xb080e780        0x0 pegasus_crt.a(protect.o)
 .bss           0xb080e780        0x0 pegasus_crt.a(console.o)
 .bss           0xb080e780        0x0 pegasus_crt.a(keyboard.o)
 .bss           0xb080e780        0x0 pegasus_crt.a(process.o)
 .bss           0xb080e780        0x0 pegasus_crt.a(mem.o)
 .bss           0xb080e780        0x0 pegasus_crt.a(exec.o)
 .bss           0xb080e780        0x0 pegasus_crt.a(exit.o)
 .bss           0xb080e780        0x0 pegasus_crt.a(wait.o)
 .bss           0xb080e780        0x0 pegasus_crt.a(fork.o)
 .bss           0xb080e780        0x0 pegasus_crt.a(read.o)
 .bss           0xb080e780        0x0 pegasus_crt.a(open.o)
 .bss           0xb080e780        0x0 pegasus_crt.a(write.o)
 .bss           0xb080e780        0x0 pegasus_crt.a(close.o)
 .bss           0xb080e780      0x800 pegasus_crt.a(kernel.o)
 .bss           0xb080ef80        0x0 pegasus_crt.a(double_link_list.o)
 .bss           0xb080ef80        0x0 pegasus_crt.a(global.o)
 .bss           0xb080ef80        0x0 pegasus_crt.a(task_network.o)
 .bss           0xb080ef80        0x0 pegasus_crt.a(hd.o)
 .bss           0xb080ef80        0x4 pegasus_crt.a(fs_main.o)
                0xb080ef80                c
 .bss           0xb080ef84        0x0 pegasus_crt.a(main.o)
 .bss           0xb080ef84        0x0 pegasus_crt.a(strcmp.o)
 .bss           0xb080ef84        0x0 pegasus_crt.a(forkexit.o)
 .bss           0xb080ef84        0x0 pegasus_crt.a(exec.o)
 .bss           0xb080ef84        0x0 pegasus_crt.a(my_process.o)
 .bss           0xb080ef84        0x0 pegasus_crt.a(thread.o)
 *(COMMON)
 *fill*         0xb080ef84       0x1c 
 COMMON         0xb080efa0     0x17b8 pegasus_crt.a(kernel_main_old.o)
                0xb080efa0                current_tty
                0xb080efa4                is_e0
                0xb080efa8                idt_ptr
                0xb080efb0                pid
                0xb080efb4                KernelVirtualMemory
                0xb080efc0                current_dis_pos
                0xb080efc4                dis_pos
                0xb080efc8                k_reenter
                0xb080efe0                gdt
                0xb080f3e0                proc_ready_table
                0xb080f3e4                test_ticks
                0xb080f3e8                pcaller
                0xb080f400                keyboard_buffer
                0xb080f60c                pcb_list
                0xb080f61c                gdt_index
                0xb080f620                tty_table
                0xb080fe60                tss
                0xb080fecc                KernelPool
                0xb080fedc                net_buf
                0xb080fee0                nic_current_page
                0xb080fee4                counter
                0xb080fee8                key_pressed
                0xb080feec                fork_pid
                0xb080fef0                is_shift
                0xb080fef1                net_data
                0xb080fef4                gdt_ptr
                0xb080ff00                idt
                0xb0810700                main_thread
                0xb0810708                ticks
                0xb0810710                is_init
                0xb0810714                UserPool
                0xb0810724                all_pcb_list
                0xb0810734                console_table
                0xb0810744                is_disp
                0xb0810748                MAIN_THREAD_PAGE_DIRECTORY
                0xb081074c                helloStr
 *fill*         0xb0810758        0x8 
 COMMON         0xb0810760       0xf0 pegasus_crt.a(mem.o)
                0xb0810760                kernel_mem_block_decs_array
 *fill*         0xb0810850       0x10 
 COMMON         0xb0810860    0x91e14 pegasus_crt.a(global.o)
                0xb0810860                proc_stack
                0xb08a0860                proc_table
 *fill*         0xb08a2674        0xc 
 COMMON         0xb08a2680      0x440 pegasus_crt.a(hd.o)
                0xb08a2680                hd_info
                0xb08a28c0                hd_cache
 COMMON         0xb08a2ac0      0xe68 pegasus_crt.a(fs_main.o)
                0xb08a2ac0                file_desc_table
                0xb08a2ec0                phy_super_block_buf
                0xb08a2ec4                phy_fsbuf
                0xb08a2ee0                inode_table
                0xb08a38e0                super_block_buf
                0xb08a38e4                fsbuf
                0xb08a3900                root
                0xb08a3928                        . = ALIGN ((. != 0x0)?0x4:0x1)
                0xb08a3928                        . = ALIGN (0x4)
                0xb08a3928                        . = SEGMENT_START ("ldata-segment", .)
                0xb08a3928                        . = ALIGN (0x4)
                0xb08a3928                        _end = .
                [!provide]                        PROVIDE (end = .)
                0xb08a3928                        . = DATA_SEGMENT_END (.)

.stab
 *(.stab)

.stabstr
 *(.stabstr)

.stab.excl
 *(.stab.excl)

.stab.exclstr
 *(.stab.exclstr)

.stab.index
 *(.stab.index)

.stab.indexstr
 *(.stab.indexstr)

.comment        0x00000000       0x2c
 *(.comment)
 .comment       0x00000000       0x2c test.o
                                 0x2d (size before relaxing)
 .comment       0x0000002c       0x2d pegasus_crt.a(kernel_main_old.o)
 .comment       0x0000002c       0x2d pegasus_crt.a(protect.o)
 .comment       0x0000002c       0x2d pegasus_crt.a(console.o)
 .comment       0x0000002c       0x2d pegasus_crt.a(keyboard.o)
 .comment       0x0000002c       0x2d pegasus_crt.a(process.o)
 .comment       0x0000002c       0x2d pegasus_crt.a(mem.o)
 .comment       0x0000002c       0x2d pegasus_crt.a(exec.o)
 .comment       0x0000002c       0x2d pegasus_crt.a(exit.o)
 .comment       0x0000002c       0x2d pegasus_crt.a(wait.o)
 .comment       0x0000002c       0x2d pegasus_crt.a(fork.o)
 .comment       0x0000002c       0x2d pegasus_crt.a(read.o)
 .comment       0x0000002c       0x2d pegasus_crt.a(open.o)
 .comment       0x0000002c       0x2d pegasus_crt.a(write.o)
 .comment       0x0000002c       0x2d pegasus_crt.a(close.o)
 .comment       0x0000002c       0x2d pegasus_crt.a(double_link_list.o)
 .comment       0x0000002c       0x2d pegasus_crt.a(global.o)
 .comment       0x0000002c       0x2d pegasus_crt.a(task_network.o)
 .comment       0x0000002c       0x2d pegasus_crt.a(hd.o)
 .comment       0x0000002c       0x2d pegasus_crt.a(fs_main.o)
 .comment       0x0000002c       0x2d pegasus_crt.a(main.o)
 .comment       0x0000002c       0x2d pegasus_crt.a(strcmp.o)
 .comment       0x0000002c       0x2d pegasus_crt.a(forkexit.o)
 .comment       0x0000002c       0x2d pegasus_crt.a(exec.o)
 .comment       0x0000002c       0x2d pegasus_crt.a(my_process.o)
 .comment       0x0000002c       0x2d pegasus_crt.a(thread.o)

.gnu.build.attributes
 *(.gnu.build.attributes .gnu.build.attributes.*)

.debug
 *(.debug)

.line
 *(.line)

.debug_srcinfo
 *(.debug_srcinfo)

.debug_sfnames
 *(.debug_sfnames)

.debug_aranges  0x00000000      0x318
 *(.debug_aranges)
 .debug_aranges
                0x00000000       0x20 pegasus_crt.a(kernel_main_old.o)
 .debug_aranges
                0x00000020       0x20 pegasus_crt.a(protect.o)
 .debug_aranges
                0x00000040       0x20 pegasus_crt.a(console.o)
 .debug_aranges
                0x00000060       0x20 pegasus_crt.a(keyboard.o)
 .debug_aranges
                0x00000080       0x20 pegasus_crt.a(process.o)
 .debug_aranges
                0x000000a0       0x20 pegasus_crt.a(mem.o)
 .debug_aranges
                0x000000c0       0x20 pegasus_crt.a(exec.o)
 .debug_aranges
                0x000000e0       0x20 pegasus_crt.a(exit.o)
 .debug_aranges
                0x00000100       0x20 pegasus_crt.a(wait.o)
 .debug_aranges
                0x00000120       0x20 pegasus_crt.a(fork.o)
 .debug_aranges
                0x00000140       0x20 pegasus_crt.a(read.o)
 .debug_aranges
                0x00000160       0x20 pegasus_crt.a(open.o)
 .debug_aranges
                0x00000180       0x20 pegasus_crt.a(write.o)
 .debug_aranges
                0x000001a0       0x20 pegasus_crt.a(close.o)
 .debug_aranges
                0x000001c0       0x20 pegasus_crt.a(double_link_list.o)
 .debug_aranges
                0x000001e0       0x18 pegasus_crt.a(global.o)
 .debug_aranges
                0x000001f8       0x20 pegasus_crt.a(task_network.o)
 .debug_aranges
                0x00000218       0x20 pegasus_crt.a(hd.o)
 .debug_aranges
                0x00000238       0x20 pegasus_crt.a(fs_main.o)
 .debug_aranges
                0x00000258       0x20 pegasus_crt.a(main.o)
 .debug_aranges
                0x00000278       0x20 pegasus_crt.a(strcmp.o)
 .debug_aranges
                0x00000298       0x20 pegasus_crt.a(forkexit.o)
 .debug_aranges
                0x000002b8       0x20 pegasus_crt.a(exec.o)
 .debug_aranges
                0x000002d8       0x20 pegasus_crt.a(my_process.o)
 .debug_aranges
                0x000002f8       0x20 pegasus_crt.a(thread.o)

.debug_pubnames
 *(.debug_pubnames)

.debug_info     0x00000000    0x1b5fc
 *(.debug_info .gnu.linkonce.wi.*)
 .debug_info    0x00000000     0x2820 pegasus_crt.a(kernel_main_old.o)
 .debug_info    0x00002820     0x11b5 pegasus_crt.a(protect.o)
 .debug_info    0x000039d5     0x128a pegasus_crt.a(console.o)
 .debug_info    0x00004c5f      0xfde pegasus_crt.a(keyboard.o)
 .debug_info    0x00005c3d      0xf73 pegasus_crt.a(process.o)
 .debug_info    0x00006bb0     0x1d52 pegasus_crt.a(mem.o)
 .debug_info    0x00008902      0xf40 pegasus_crt.a(exec.o)
 .debug_info    0x00009842      0xdb3 pegasus_crt.a(exit.o)
 .debug_info    0x0000a5f5      0xdc1 pegasus_crt.a(wait.o)
 .debug_info    0x0000b3b6      0xda8 pegasus_crt.a(fork.o)
 .debug_info    0x0000c15e      0xea1 pegasus_crt.a(read.o)
 .debug_info    0x0000cfff      0xe02 pegasus_crt.a(open.o)
 .debug_info    0x0000de01      0xe2f pegasus_crt.a(write.o)
 .debug_info    0x0000ec30      0xdb6 pegasus_crt.a(close.o)
 .debug_info    0x0000f9e6     0x1044 pegasus_crt.a(double_link_list.o)
 .debug_info    0x00010a2a      0xe8a pegasus_crt.a(global.o)
 .debug_info    0x000118b4      0xf01 pegasus_crt.a(task_network.o)
 .debug_info    0x000127b5     0x19f3 pegasus_crt.a(hd.o)
 .debug_info    0x000141a8     0x1f3b pegasus_crt.a(fs_main.o)
 .debug_info    0x000160e3      0xdcc pegasus_crt.a(main.o)
 .debug_info    0x00016eaf       0xc1 pegasus_crt.a(strcmp.o)
 .debug_info    0x00016f70      0xfbc pegasus_crt.a(forkexit.o)
 .debug_info    0x00017f2c     0x11ca pegasus_crt.a(exec.o)
 .debug_info    0x000190f6     0x149d pegasus_crt.a(my_process.o)
 .debug_info    0x0001a593     0x1069 pegasus_crt.a(thread.o)

.debug_abbrev   0x00000000     0x340d
 *(.debug_abbrev)
 .debug_abbrev  0x00000000      0x452 pegasus_crt.a(kernel_main_old.o)
 .debug_abbrev  0x00000452      0x227 pegasus_crt.a(protect.o)
 .debug_abbrev  0x00000679      0x2ac pegasus_crt.a(console.o)
 .debug_abbrev  0x00000925      0x1fb pegasus_crt.a(keyboard.o)
 .debug_abbrev  0x00000b20      0x1e0 pegasus_crt.a(process.o)
 .debug_abbrev  0x00000d00      0x2ea pegasus_crt.a(mem.o)
 .debug_abbrev  0x00000fea      0x1e8 pegasus_crt.a(exec.o)
 .debug_abbrev  0x000011d2      0x19b pegasus_crt.a(exit.o)
 .debug_abbrev  0x0000136d      0x19f pegasus_crt.a(wait.o)
 .debug_abbrev  0x0000150c      0x18a pegasus_crt.a(fork.o)
 .debug_abbrev  0x00001696      0x1ef pegasus_crt.a(read.o)
 .debug_abbrev  0x00001885      0x1c5 pegasus_crt.a(open.o)
 .debug_abbrev  0x00001a4a      0x1db pegasus_crt.a(write.o)
 .debug_abbrev  0x00001c25      0x19d pegasus_crt.a(close.o)
 .debug_abbrev  0x00001dc2      0x216 pegasus_crt.a(double_link_list.o)
 .debug_abbrev  0x00001fd8      0x157 pegasus_crt.a(global.o)
 .debug_abbrev  0x0000212f      0x1cb pegasus_crt.a(task_network.o)
 .debug_abbrev  0x000022fa      0x33e pegasus_crt.a(hd.o)
 .debug_abbrev  0x00002638      0x2ef pegasus_crt.a(fs_main.o)
 .debug_abbrev  0x00002927      0x208 pegasus_crt.a(main.o)
 .debug_abbrev  0x00002b2f       0x94 pegasus_crt.a(strcmp.o)
 .debug_abbrev  0x00002bc3      0x204 pegasus_crt.a(forkexit.o)
 .debug_abbrev  0x00002dc7      0x1c4 pegasus_crt.a(exec.o)
 .debug_abbrev  0x00002f8b      0x260 pegasus_crt.a(my_process.o)
 .debug_abbrev  0x000031eb      0x222 pegasus_crt.a(thread.o)

.debug_line     0x00000000     0x4816
 *(.debug_line .debug_line.* .debug_line_end)
 .debug_line    0x00000000      0xe0f pegasus_crt.a(kernel_main_old.o)
 .debug_line    0x00000e0f      0x1ff pegasus_crt.a(protect.o)
 .debug_line    0x0000100e      0x54e pegasus_crt.a(console.o)
 .debug_line    0x0000155c      0x296 pegasus_crt.a(keyboard.o)
 .debug_line    0x000017f2      0x180 pegasus_crt.a(process.o)
 .debug_line    0x00001972      0x7e6 pegasus_crt.a(mem.o)
 .debug_line    0x00002158      0x18b pegasus_crt.a(exec.o)
 .debug_line    0x000022e3       0xa0 pegasus_crt.a(exit.o)
 .debug_line    0x00002383       0xb7 pegasus_crt.a(wait.o)
 .debug_line    0x0000243a       0xa5 pegasus_crt.a(fork.o)
 .debug_line    0x000024df      0x15b pegasus_crt.a(read.o)
 .debug_line    0x0000263a       0xc3 pegasus_crt.a(open.o)
 .debug_line    0x000026fd       0xc2 pegasus_crt.a(write.o)
 .debug_line    0x000027bf       0xb3 pegasus_crt.a(close.o)
 .debug_line    0x00002872      0x253 pegasus_crt.a(double_link_list.o)
 .debug_line    0x00002ac5       0x95 pegasus_crt.a(global.o)
 .debug_line    0x00002b5a       0xed pegasus_crt.a(task_network.o)
 .debug_line    0x00002c47      0x639 pegasus_crt.a(hd.o)
 .debug_line    0x00003280      0xc1a pegasus_crt.a(fs_main.o)
 .debug_line    0x00003e9a       0xec pegasus_crt.a(main.o)
 .debug_line    0x00003f86       0x8a pegasus_crt.a(strcmp.o)
 .debug_line    0x00004010      0x17a pegasus_crt.a(forkexit.o)
 .debug_line    0x0000418a      0x20c pegasus_crt.a(exec.o)
 .debug_line    0x00004396      0x33b pegasus_crt.a(my_process.o)
 .debug_line    0x000046d1      0x145 pegasus_crt.a(thread.o)

.debug_frame
 *(.debug_frame)

.debug_str      0x00000000     0x1f67
 *(.debug_str)
 .debug_str     0x00000000     0x1f67 pegasus_crt.a(kernel_main_old.o)
                                0xb73 (size before relaxing)
 .debug_str     0x00001f67      0x76b pegasus_crt.a(protect.o)
 .debug_str     0x00001f67      0x75f pegasus_crt.a(console.o)
 .debug_str     0x00001f67      0x69c pegasus_crt.a(keyboard.o)
 .debug_str     0x00001f67      0x64a pegasus_crt.a(process.o)
 .debug_str     0x00001f67      0xa98 pegasus_crt.a(mem.o)
 .debug_str     0x00001f67      0x62c pegasus_crt.a(exec.o)
 .debug_str     0x00001f67      0x5a5 pegasus_crt.a(exit.o)
 .debug_str     0x00001f67      0x5a5 pegasus_crt.a(wait.o)
 .debug_str     0x00001f67      0x59e pegasus_crt.a(fork.o)
 .debug_str     0x00001f67      0x617 pegasus_crt.a(read.o)
 .debug_str     0x00001f67      0x5de pegasus_crt.a(open.o)
 .debug_str     0x00001f67      0x5db pegasus_crt.a(write.o)
 .debug_str     0x00001f67      0x5a6 pegasus_crt.a(close.o)
 .debug_str     0x00001f67      0x6d1 pegasus_crt.a(double_link_list.o)
 .debug_str     0x00001f67      0x610 pegasus_crt.a(global.o)
 .debug_str     0x00001f67      0x66b pegasus_crt.a(task_network.o)
 .debug_str     0x00001f67      0x9c5 pegasus_crt.a(hd.o)
 .debug_str     0x00001f67      0xafa pegasus_crt.a(fs_main.o)
 .debug_str     0x00001f67      0x598 pegasus_crt.a(main.o)
 .debug_str     0x00001f67       0xb1 pegasus_crt.a(strcmp.o)
 .debug_str     0x00001f67      0x617 pegasus_crt.a(forkexit.o)
 .debug_str     0x00001f67      0x86d pegasus_crt.a(exec.o)
 .debug_str     0x00001f67      0x8fe pegasus_crt.a(my_process.o)
 .debug_str     0x00001f67      0x717 pegasus_crt.a(thread.o)

.debug_loc
 *(.debug_loc)

.debug_macinfo
 *(.debug_macinfo)

.debug_weaknames
 *(.debug_weaknames)

.debug_funcnames
 *(.debug_funcnames)

.debug_typenames
 *(.debug_typenames)

.debug_varnames
 *(.debug_varnames)

.debug_pubtypes
 *(.debug_pubtypes)

.debug_ranges   0x00000000       0x90
 *(.debug_ranges)
 .debug_ranges  0x00000000       0x30 pegasus_crt.a(kernel_main_old.o)
 .debug_ranges  0x00000030       0x48 pegasus_crt.a(hd.o)
 .debug_ranges  0x00000078       0x18 pegasus_crt.a(exec.o)

.debug_addr
 *(.debug_addr)

.debug_line_str
 *(.debug_line_str)

.debug_loclists
 *(.debug_loclists)

.debug_macro
 *(.debug_macro)

.debug_names
 *(.debug_names)

.debug_rnglists
 *(.debug_rnglists)

.debug_str_offsets
 *(.debug_str_offsets)

.debug_sup
 *(.debug_sup)

.gnu.attributes
 *(.gnu.attributes)

/DISCARD/
 *(.note.GNU-stack)
 *(.gnu_debuglink)
 *(.gnu.lto_*)
OUTPUT(test elf32-i386)
