Archive member included to satisfy reference by file (symbol)

pegasus_crt.a(kernel_main_old.o)
                              test.o (Printf)
pegasus_crt.a(protect.o)      pegasus_crt.a(kernel_main_old.o) (InitInterruptDesc)
pegasus_crt.a(console.o)      pegasus_crt.a(kernel_main_old.o) (out_char)
pegasus_crt.a(process.o)      pegasus_crt.a(kernel_main_old.o) (schedule_process)
pegasus_crt.a(global.o)       pegasus_crt.a(protect.o) (proc_table)
pegasus_crt.a(keyboard.o)     pegasus_crt.a(console.o) (keyboard_read)
pegasus_crt.a(task_network.o)
                              pegasus_crt.a(global.o) (task_network)
pegasus_crt.a(hd.o)           pegasus_crt.a(global.o) (TaskHD)
pegasus_crt.a(fs_main.o)      pegasus_crt.a(global.o) (task_fs)
pegasus_crt.a(main.o)         pegasus_crt.a(global.o) (TaskMM)
pegasus_crt.a(mem.o)          pegasus_crt.a(kernel_main_old.o) (ptr_pde)
pegasus_crt.a(exec.o)         pegasus_crt.a(kernel_main_old.o) (execl)
pegasus_crt.a(exit.o)         start.o (exit)
pegasus_crt.a(wait.o)         pegasus_crt.a(kernel_main_old.o) (wait)
pegasus_crt.a(fork.o)         pegasus_crt.a(kernel_main_old.o) (fork)
pegasus_crt.a(strcmp.o)       pegasus_crt.a(fs_main.o) (strcmp)
pegasus_crt.a(read.o)         pegasus_crt.a(kernel_main_old.o) (read)
pegasus_crt.a(open.o)         pegasus_crt.a(kernel_main_old.o) (open)
pegasus_crt.a(write.o)        pegasus_crt.a(kernel_main_old.o) (write)
pegasus_crt.a(close.o)        pegasus_crt.a(kernel_main_old.o) (close)
pegasus_crt.a(kernel.o)       pegasus_crt.a(kernel_main_old.o) (disp_str)
pegasus_crt.a(switch_to.o)    pegasus_crt.a(process.o) (switch_to)
pegasus_crt.a(string.o)       pegasus_crt.a(kernel_main_old.o) (Memcpy2)
pegasus_crt.a(syscall.o)      pegasus_crt.a(kernel_main_old.o) (write_debug)
pegasus_crt.a(hd_rdwt.o)      pegasus_crt.a(hd.o) (read_port)
pegasus_crt.a(double_link_list.o)
                              pegasus_crt.a(mem.o) (initDoubleLinkList)
pegasus_crt.a(netdev.o)       pegasus_crt.a(kernel.o) (net_handler)
pegasus_crt.a(arp.o)          pegasus_crt.a(netdev.o) (arp_rcv)
pegasus_crt.a(skbuff.o)       pegasus_crt.a(netdev.o) (alloc_skb)
pegasus_crt.a(route.o)        pegasus_crt.a(netdev.o) (route_init)
pegasus_crt.a(utils.o)        pegasus_crt.a(arp.o) (print_err)
pegasus_crt.a(forkexit.o)     pegasus_crt.a(main.o) (do_fork)
pegasus_crt.a(exec.o)         pegasus_crt.a(main.o) (do_exec)
pegasus_crt.a(perror.o)       pegasus_crt.a(netdev.o) (perror)
pegasus_crt.a(sscanf.o)       pegasus_crt.a(netdev.o) (sscanf)
pegasus_crt.a(ntohs.o)        pegasus_crt.a(netdev.o) (ntohs)
pegasus_crt.a(htonl.o)        pegasus_crt.a(arp.o) (htonl)
pegasus_crt.a(htons.o)        pegasus_crt.a(netdev.o) (htons)
pegasus_crt.a(inet_pton.o)    pegasus_crt.a(netdev.o) (inet_pton)
pegasus_crt.a(ntohl.o)        pegasus_crt.a(netdev.o) (ntohl)
pegasus_crt.a(ne2000.o)       pegasus_crt.a(netdev.o) (DriverSend)
pegasus_crt.a(my_process.o)   pegasus_crt.a(forkexit.o) (fork_process)
pegasus_crt.a(ip_input.o)     pegasus_crt.a(netdev.o) (ip_rcv)
pegasus_crt.a(tcp.o)          pegasus_crt.a(ip_input.o) (tcp_in)
pegasus_crt.a(tcp_sock.o)     pegasus_crt.a(tcp.o) (tcp_established_or_syn_recvd_socks_remove)
pegasus_crt.a(icmpv4.o)       pegasus_crt.a(ip_input.o) (icmpv4_incoming)
pegasus_crt.a(tcp_input.o)    pegasus_crt.a(tcp.o) (tcp_process)
pegasus_crt.a(udp.o)          pegasus_crt.a(ip_input.o) (udp_in)
pegasus_crt.a(tcp_data.o)     pegasus_crt.a(tcp_input.o) (tcp_data_dequeue)
pegasus_crt.a(atoi.o)         pegasus_crt.a(sscanf.o) (atoi)
pegasus_crt.a(strtok.o)       pegasus_crt.a(inet_pton.o) (strtok)
pegasus_crt.a(strpbrk.o)      pegasus_crt.a(strtok.o) (strpbrk)
pegasus_crt.a(thread.o)       pegasus_crt.a(my_process.o) (thread_init)
pegasus_crt.a(udp_sock.o)     pegasus_crt.a(udp.o) (udp_lookup_sock)
pegasus_crt.a(ip_output.o)    pegasus_crt.a(icmpv4.o) (ip_output)
pegasus_crt.a(sock.o)         pegasus_crt.a(tcp_sock.o) (sk_free)
pegasus_crt.a(tcp_output.o)   pegasus_crt.a(tcp_input.o) (tcp_send_synack)
pegasus_crt.a(dst.o)          pegasus_crt.a(ip_output.o) (dst_neigh_output)

Merging program properties

Removed property 0xc0010001 to merge test.o (0x1) and start.o (not found)
Removed property 0xc0010002 to merge test.o (0x0) and start.o (not found)
Removed property 0xc0010001 to merge test.o (not found) and pegasus_crt.a(kernel_main_old.o) (0x1)
Removed property 0xc0010002 to merge test.o (not found) and pegasus_crt.a(kernel_main_old.o) (0x1)
Removed property 0xc0010001 to merge test.o (not found) and pegasus_crt.a(protect.o) (0x1)
Removed property 0xc0010002 to merge test.o (not found) and pegasus_crt.a(protect.o) (0x0)
Removed property 0xc0010001 to merge test.o (not found) and pegasus_crt.a(console.o) (0x1)
Removed property 0xc0010002 to merge test.o (not found) and pegasus_crt.a(console.o) (0x1)
Removed property 0xc0010001 to merge test.o (not found) and pegasus_crt.a(process.o) (0x1)
Removed property 0xc0010002 to merge test.o (not found) and pegasus_crt.a(process.o) (0x0)
Removed property 0xc0010001 to merge test.o (not found) and pegasus_crt.a(global.o) (0x1)
Removed property 0xc0010002 to merge test.o (not found) and pegasus_crt.a(global.o) (0x0)
Removed property 0xc0010001 to merge test.o (not found) and pegasus_crt.a(keyboard.o) (0x1)
Removed property 0xc0010002 to merge test.o (not found) and pegasus_crt.a(keyboard.o) (0x0)
Removed property 0xc0010001 to merge test.o (not found) and pegasus_crt.a(task_network.o) (0x1)
Removed property 0xc0010002 to merge test.o (not found) and pegasus_crt.a(task_network.o) (0x0)
Removed property 0xc0010001 to merge test.o (not found) and pegasus_crt.a(hd.o) (0x1)
Removed property 0xc0010002 to merge test.o (not found) and pegasus_crt.a(hd.o) (0x1)
Removed property 0xc0010001 to merge test.o (not found) and pegasus_crt.a(fs_main.o) (0x1)
Removed property 0xc0010002 to merge test.o (not found) and pegasus_crt.a(fs_main.o) (0x1)
Removed property 0xc0010001 to merge test.o (not found) and pegasus_crt.a(main.o) (0x1)
Removed property 0xc0010002 to merge test.o (not found) and pegasus_crt.a(main.o) (0x0)
Removed property 0xc0010001 to merge test.o (not found) and pegasus_crt.a(mem.o) (0x1)
Removed property 0xc0010002 to merge test.o (not found) and pegasus_crt.a(mem.o) (0x1)
Removed property 0xc0010001 to merge test.o (not found) and pegasus_crt.a(exec.o) (0x1)
Removed property 0xc0010002 to merge test.o (not found) and pegasus_crt.a(exec.o) (0x0)
Removed property 0xc0010001 to merge test.o (not found) and pegasus_crt.a(exit.o) (0x1)
Removed property 0xc0010002 to merge test.o (not found) and pegasus_crt.a(exit.o) (0x0)
Removed property 0xc0010001 to merge test.o (not found) and pegasus_crt.a(wait.o) (0x1)
Removed property 0xc0010002 to merge test.o (not found) and pegasus_crt.a(wait.o) (0x0)
Removed property 0xc0010001 to merge test.o (not found) and pegasus_crt.a(fork.o) (0x1)
Removed property 0xc0010002 to merge test.o (not found) and pegasus_crt.a(fork.o) (0x0)
Removed property 0xc0010001 to merge test.o (not found) and pegasus_crt.a(strcmp.o) (0x1)
Removed property 0xc0010002 to merge test.o (not found) and pegasus_crt.a(strcmp.o) (0x1)
Removed property 0xc0010001 to merge test.o (not found) and pegasus_crt.a(read.o) (0x1)
Removed property 0xc0010002 to merge test.o (not found) and pegasus_crt.a(read.o) (0x0)
Removed property 0xc0010001 to merge test.o (not found) and pegasus_crt.a(open.o) (0x1)
Removed property 0xc0010002 to merge test.o (not found) and pegasus_crt.a(open.o) (0x0)
Removed property 0xc0010001 to merge test.o (not found) and pegasus_crt.a(write.o) (0x1)
Removed property 0xc0010002 to merge test.o (not found) and pegasus_crt.a(write.o) (0x0)
Removed property 0xc0010001 to merge test.o (not found) and pegasus_crt.a(close.o) (0x1)
Removed property 0xc0010002 to merge test.o (not found) and pegasus_crt.a(close.o) (0x0)
Removed property 0xc0010001 to merge test.o (not found) and pegasus_crt.a(double_link_list.o) (0x1)
Removed property 0xc0010002 to merge test.o (not found) and pegasus_crt.a(double_link_list.o) (0x0)
Removed property 0xc0010001 to merge test.o (not found) and pegasus_crt.a(netdev.o) (0x1)
Removed property 0xc0010002 to merge test.o (not found) and pegasus_crt.a(netdev.o) (0x0)
Removed property 0xc0010001 to merge test.o (not found) and pegasus_crt.a(arp.o) (0x1)
Removed property 0xc0010002 to merge test.o (not found) and pegasus_crt.a(arp.o) (0x0)
Removed property 0xc0010001 to merge test.o (not found) and pegasus_crt.a(skbuff.o) (0x1)
Removed property 0xc0010002 to merge test.o (not found) and pegasus_crt.a(skbuff.o) (0x0)
Removed property 0xc0010001 to merge test.o (not found) and pegasus_crt.a(route.o) (0x1)
Removed property 0xc0010002 to merge test.o (not found) and pegasus_crt.a(route.o) (0x0)
Removed property 0xc0010001 to merge test.o (not found) and pegasus_crt.a(utils.o) (0x1)
Removed property 0xc0010002 to merge test.o (not found) and pegasus_crt.a(utils.o) (0x0)
Removed property 0xc0010001 to merge test.o (not found) and pegasus_crt.a(forkexit.o) (0x1)
Removed property 0xc0010002 to merge test.o (not found) and pegasus_crt.a(forkexit.o) (0x0)
Removed property 0xc0010001 to merge test.o (not found) and pegasus_crt.a(exec.o) (0x1)
Removed property 0xc0010002 to merge test.o (not found) and pegasus_crt.a(exec.o) (0x0)
Removed property 0xc0010001 to merge test.o (not found) and pegasus_crt.a(perror.o) (0x1)
Removed property 0xc0010002 to merge test.o (not found) and pegasus_crt.a(perror.o) (0x0)
Removed property 0xc0010001 to merge test.o (not found) and pegasus_crt.a(sscanf.o) (0x1)
Removed property 0xc0010002 to merge test.o (not found) and pegasus_crt.a(sscanf.o) (0x0)
Removed property 0xc0010001 to merge test.o (not found) and pegasus_crt.a(ntohs.o) (0x1)
Removed property 0xc0010002 to merge test.o (not found) and pegasus_crt.a(ntohs.o) (0x0)
Removed property 0xc0010001 to merge test.o (not found) and pegasus_crt.a(htonl.o) (0x1)
Removed property 0xc0010002 to merge test.o (not found) and pegasus_crt.a(htonl.o) (0x0)
Removed property 0xc0010001 to merge test.o (not found) and pegasus_crt.a(htons.o) (0x1)
Removed property 0xc0010002 to merge test.o (not found) and pegasus_crt.a(htons.o) (0x0)
Removed property 0xc0010001 to merge test.o (not found) and pegasus_crt.a(inet_pton.o) (0x1)
Removed property 0xc0010002 to merge test.o (not found) and pegasus_crt.a(inet_pton.o) (0x0)
Removed property 0xc0010001 to merge test.o (not found) and pegasus_crt.a(ntohl.o) (0x1)
Removed property 0xc0010002 to merge test.o (not found) and pegasus_crt.a(ntohl.o) (0x0)
Removed property 0xc0010001 to merge test.o (not found) and pegasus_crt.a(my_process.o) (0x1)
Removed property 0xc0010002 to merge test.o (not found) and pegasus_crt.a(my_process.o) (0x1)
Removed property 0xc0010001 to merge test.o (not found) and pegasus_crt.a(ip_input.o) (0x1)
Removed property 0xc0010002 to merge test.o (not found) and pegasus_crt.a(ip_input.o) (0x0)
Removed property 0xc0010001 to merge test.o (not found) and pegasus_crt.a(tcp.o) (0x1)
Removed property 0xc0010002 to merge test.o (not found) and pegasus_crt.a(tcp.o) (0x0)
Removed property 0xc0010001 to merge test.o (not found) and pegasus_crt.a(tcp_sock.o) (0x1)
Removed property 0xc0010002 to merge test.o (not found) and pegasus_crt.a(tcp_sock.o) (0x0)
Removed property 0xc0010001 to merge test.o (not found) and pegasus_crt.a(icmpv4.o) (0x1)
Removed property 0xc0010002 to merge test.o (not found) and pegasus_crt.a(icmpv4.o) (0x0)
Removed property 0xc0010001 to merge test.o (not found) and pegasus_crt.a(tcp_input.o) (0x1)
Removed property 0xc0010002 to merge test.o (not found) and pegasus_crt.a(tcp_input.o) (0x0)
Removed property 0xc0010001 to merge test.o (not found) and pegasus_crt.a(udp.o) (0x1)
Removed property 0xc0010002 to merge test.o (not found) and pegasus_crt.a(udp.o) (0x1)
Removed property 0xc0010001 to merge test.o (not found) and pegasus_crt.a(tcp_data.o) (0x1)
Removed property 0xc0010002 to merge test.o (not found) and pegasus_crt.a(tcp_data.o) (0x0)
Removed property 0xc0010001 to merge test.o (not found) and pegasus_crt.a(atoi.o) (0x1)
Removed property 0xc0010002 to merge test.o (not found) and pegasus_crt.a(atoi.o) (0x0)
Removed property 0xc0010001 to merge test.o (not found) and pegasus_crt.a(strtok.o) (0x1)
Removed property 0xc0010002 to merge test.o (not found) and pegasus_crt.a(strtok.o) (0x0)
Removed property 0xc0010001 to merge test.o (not found) and pegasus_crt.a(strpbrk.o) (0x1)
Removed property 0xc0010002 to merge test.o (not found) and pegasus_crt.a(strpbrk.o) (0x0)
Removed property 0xc0010001 to merge test.o (not found) and pegasus_crt.a(thread.o) (0x1)
Removed property 0xc0010002 to merge test.o (not found) and pegasus_crt.a(thread.o) (0x0)
Removed property 0xc0010001 to merge test.o (not found) and pegasus_crt.a(udp_sock.o) (0x1)
Removed property 0xc0010002 to merge test.o (not found) and pegasus_crt.a(udp_sock.o) (0x0)
Removed property 0xc0010001 to merge test.o (not found) and pegasus_crt.a(ip_output.o) (0x1)
Removed property 0xc0010002 to merge test.o (not found) and pegasus_crt.a(ip_output.o) (0x0)
Removed property 0xc0010001 to merge test.o (not found) and pegasus_crt.a(sock.o) (0x1)
Removed property 0xc0010002 to merge test.o (not found) and pegasus_crt.a(sock.o) (0x0)
Removed property 0xc0010001 to merge test.o (not found) and pegasus_crt.a(tcp_output.o) (0x1)
Removed property 0xc0010002 to merge test.o (not found) and pegasus_crt.a(tcp_output.o) (0x1)
Removed property 0xc0010001 to merge test.o (not found) and pegasus_crt.a(dst.o) (0x1)
Removed property 0xc0010002 to merge test.o (not found) and pegasus_crt.a(dst.o) (0x0)

Allocating common symbols
Common symbol       size              file

current_tty         0x4               pegasus_crt.a(kernel_main_old.o)
file_desc_table     0x400             pegasus_crt.a(fs_main.o)
is_e0               0x1               pegasus_crt.a(kernel_main_old.o)
phy_super_block_buf
                    0x4               pegasus_crt.a(fs_main.o)
phy_fsbuf           0x4               pegasus_crt.a(fs_main.o)
idt_ptr             0x6               pegasus_crt.a(kernel_main_old.o)
pid                 0x4               pegasus_crt.a(kernel_main_old.o)
KernelVirtualMemory
                    0xc               pegasus_crt.a(kernel_main_old.o)
inode_table         0xa00             pegasus_crt.a(fs_main.o)
loop                0x4               pegasus_crt.a(netdev.o)
current_dis_pos     0x4               pegasus_crt.a(kernel_main_old.o)
dis_pos             0x4               pegasus_crt.a(kernel_main_old.o)
netdev              0x4               pegasus_crt.a(netdev.o)
k_reenter           0x4               pegasus_crt.a(kernel_main_old.o)
super_block_buf     0x4               pegasus_crt.a(fs_main.o)
gdt                 0x400             pegasus_crt.a(kernel_main_old.o)
proc_ready_table    0x4               pegasus_crt.a(kernel_main_old.o)
test_ticks          0x4               pegasus_crt.a(kernel_main_old.o)
hd_info             0x224             pegasus_crt.a(hd.o)
proc_stack          0x90000           pegasus_crt.a(global.o)
pcaller             0x4               pegasus_crt.a(kernel_main_old.o)
keyboard_buffer     0x20c             pegasus_crt.a(kernel_main_old.o)
pcb_list            0x10              pegasus_crt.a(kernel_main_old.o)
gdt_index           0x4               pegasus_crt.a(kernel_main_old.o)
tty_table           0x828             pegasus_crt.a(kernel_main_old.o)
tss                 0x6c              pegasus_crt.a(kernel_main_old.o)
KernelPool          0x10              pegasus_crt.a(kernel_main_old.o)
net_buf             0x4               pegasus_crt.a(kernel_main_old.o)
fsbuf               0x4               pegasus_crt.a(fs_main.o)
nic_current_page    0x1               pegasus_crt.a(kernel_main_old.o)
root                0x28              pegasus_crt.a(fs_main.o)
kernel_mem_block_decs_array
                    0xf0              pegasus_crt.a(mem.o)
counter             0x4               pegasus_crt.a(kernel_main_old.o)
key_pressed         0x4               pegasus_crt.a(kernel_main_old.o)
fork_pid            0x4               pegasus_crt.a(kernel_main_old.o)
is_shift            0x1               pegasus_crt.a(kernel_main_old.o)
net_data            0x1               pegasus_crt.a(kernel_main_old.o)
gdt_ptr             0x6               pegasus_crt.a(kernel_main_old.o)
idt                 0x800             pegasus_crt.a(kernel_main_old.o)
main_thread         0x4               pegasus_crt.a(kernel_main_old.o)
ticks               0x8               pegasus_crt.a(kernel_main_old.o)
is_init             0x1               pegasus_crt.a(kernel_main_old.o)
UserPool            0x10              pegasus_crt.a(kernel_main_old.o)
all_pcb_list        0x10              pegasus_crt.a(kernel_main_old.o)
console_table       0x10              pegasus_crt.a(kernel_main_old.o)
is_disp             0x1               pegasus_crt.a(kernel_main_old.o)
MAIN_THREAD_PAGE_DIRECTORY
                    0x4               pegasus_crt.a(kernel_main_old.o)
helloStr            0xc               pegasus_crt.a(kernel_main_old.o)
proc_table          0x1de8            pegasus_crt.a(global.o)
hd_cache            0x200             pegasus_crt.a(hd.o)

Discarded input sections

 .note.GNU-stack
                0x00000000        0x0 test.o
 .note.gnu.property
                0x00000000       0x28 test.o
 .note.GNU-stack
                0x00000000        0x0 pegasus_crt.a(kernel_main_old.o)
 .note.gnu.property
                0x00000000       0x28 pegasus_crt.a(kernel_main_old.o)
 .note.GNU-stack
                0x00000000        0x0 pegasus_crt.a(protect.o)
 .note.gnu.property
                0x00000000       0x28 pegasus_crt.a(protect.o)
 .note.GNU-stack
                0x00000000        0x0 pegasus_crt.a(console.o)
 .note.gnu.property
                0x00000000       0x28 pegasus_crt.a(console.o)
 .note.GNU-stack
                0x00000000        0x0 pegasus_crt.a(process.o)
 .note.gnu.property
                0x00000000       0x28 pegasus_crt.a(process.o)
 .note.GNU-stack
                0x00000000        0x0 pegasus_crt.a(global.o)
 .note.gnu.property
                0x00000000       0x28 pegasus_crt.a(global.o)
 .note.GNU-stack
                0x00000000        0x0 pegasus_crt.a(keyboard.o)
 .note.gnu.property
                0x00000000       0x28 pegasus_crt.a(keyboard.o)
 .note.GNU-stack
                0x00000000        0x0 pegasus_crt.a(task_network.o)
 .note.gnu.property
                0x00000000       0x28 pegasus_crt.a(task_network.o)
 .note.GNU-stack
                0x00000000        0x0 pegasus_crt.a(hd.o)
 .note.gnu.property
                0x00000000       0x28 pegasus_crt.a(hd.o)
 .note.GNU-stack
                0x00000000        0x0 pegasus_crt.a(fs_main.o)
 .note.gnu.property
                0x00000000       0x28 pegasus_crt.a(fs_main.o)
 .note.GNU-stack
                0x00000000        0x0 pegasus_crt.a(main.o)
 .note.gnu.property
                0x00000000       0x28 pegasus_crt.a(main.o)
 .note.GNU-stack
                0x00000000        0x0 pegasus_crt.a(mem.o)
 .note.gnu.property
                0x00000000       0x28 pegasus_crt.a(mem.o)
 .note.GNU-stack
                0x00000000        0x0 pegasus_crt.a(exec.o)
 .note.gnu.property
                0x00000000       0x28 pegasus_crt.a(exec.o)
 .note.GNU-stack
                0x00000000        0x0 pegasus_crt.a(exit.o)
 .note.gnu.property
                0x00000000       0x28 pegasus_crt.a(exit.o)
 .note.GNU-stack
                0x00000000        0x0 pegasus_crt.a(wait.o)
 .note.gnu.property
                0x00000000       0x28 pegasus_crt.a(wait.o)
 .note.GNU-stack
                0x00000000        0x0 pegasus_crt.a(fork.o)
 .note.gnu.property
                0x00000000       0x28 pegasus_crt.a(fork.o)
 .note.GNU-stack
                0x00000000        0x0 pegasus_crt.a(strcmp.o)
 .note.gnu.property
                0x00000000       0x28 pegasus_crt.a(strcmp.o)
 .note.GNU-stack
                0x00000000        0x0 pegasus_crt.a(read.o)
 .note.gnu.property
                0x00000000       0x28 pegasus_crt.a(read.o)
 .note.GNU-stack
                0x00000000        0x0 pegasus_crt.a(open.o)
 .note.gnu.property
                0x00000000       0x28 pegasus_crt.a(open.o)
 .note.GNU-stack
                0x00000000        0x0 pegasus_crt.a(write.o)
 .note.gnu.property
                0x00000000       0x28 pegasus_crt.a(write.o)
 .note.GNU-stack
                0x00000000        0x0 pegasus_crt.a(close.o)
 .note.gnu.property
                0x00000000       0x28 pegasus_crt.a(close.o)
 .note.GNU-stack
                0x00000000        0x0 pegasus_crt.a(double_link_list.o)
 .note.gnu.property
                0x00000000       0x28 pegasus_crt.a(double_link_list.o)
 .note.GNU-stack
                0x00000000        0x0 pegasus_crt.a(netdev.o)
 .note.gnu.property
                0x00000000       0x28 pegasus_crt.a(netdev.o)
 .note.GNU-stack
                0x00000000        0x0 pegasus_crt.a(arp.o)
 .note.gnu.property
                0x00000000       0x28 pegasus_crt.a(arp.o)
 .note.GNU-stack
                0x00000000        0x0 pegasus_crt.a(skbuff.o)
 .note.gnu.property
                0x00000000       0x28 pegasus_crt.a(skbuff.o)
 .note.GNU-stack
                0x00000000        0x0 pegasus_crt.a(route.o)
 .note.gnu.property
                0x00000000       0x28 pegasus_crt.a(route.o)
 .note.GNU-stack
                0x00000000        0x0 pegasus_crt.a(utils.o)
 .note.gnu.property
                0x00000000       0x28 pegasus_crt.a(utils.o)
 .note.GNU-stack
                0x00000000        0x0 pegasus_crt.a(forkexit.o)
 .note.gnu.property
                0x00000000       0x28 pegasus_crt.a(forkexit.o)
 .note.GNU-stack
                0x00000000        0x0 pegasus_crt.a(exec.o)
 .note.gnu.property
                0x00000000       0x28 pegasus_crt.a(exec.o)
 .note.GNU-stack
                0x00000000        0x0 pegasus_crt.a(perror.o)
 .note.gnu.property
                0x00000000       0x28 pegasus_crt.a(perror.o)
 .note.GNU-stack
                0x00000000        0x0 pegasus_crt.a(sscanf.o)
 .note.gnu.property
                0x00000000       0x28 pegasus_crt.a(sscanf.o)
 .note.GNU-stack
                0x00000000        0x0 pegasus_crt.a(ntohs.o)
 .note.gnu.property
                0x00000000       0x28 pegasus_crt.a(ntohs.o)
 .note.GNU-stack
                0x00000000        0x0 pegasus_crt.a(htonl.o)
 .note.gnu.property
                0x00000000       0x28 pegasus_crt.a(htonl.o)
 .note.GNU-stack
                0x00000000        0x0 pegasus_crt.a(htons.o)
 .note.gnu.property
                0x00000000       0x28 pegasus_crt.a(htons.o)
 .note.GNU-stack
                0x00000000        0x0 pegasus_crt.a(inet_pton.o)
 .note.gnu.property
                0x00000000       0x28 pegasus_crt.a(inet_pton.o)
 .note.GNU-stack
                0x00000000        0x0 pegasus_crt.a(ntohl.o)
 .note.gnu.property
                0x00000000       0x28 pegasus_crt.a(ntohl.o)
 .note.GNU-stack
                0x00000000        0x0 pegasus_crt.a(my_process.o)
 .note.gnu.property
                0x00000000       0x28 pegasus_crt.a(my_process.o)
 .note.GNU-stack
                0x00000000        0x0 pegasus_crt.a(ip_input.o)
 .note.gnu.property
                0x00000000       0x28 pegasus_crt.a(ip_input.o)
 .note.GNU-stack
                0x00000000        0x0 pegasus_crt.a(tcp.o)
 .note.gnu.property
                0x00000000       0x28 pegasus_crt.a(tcp.o)
 .note.GNU-stack
                0x00000000        0x0 pegasus_crt.a(tcp_sock.o)
 .note.gnu.property
                0x00000000       0x28 pegasus_crt.a(tcp_sock.o)
 .note.GNU-stack
                0x00000000        0x0 pegasus_crt.a(icmpv4.o)
 .note.gnu.property
                0x00000000       0x28 pegasus_crt.a(icmpv4.o)
 .note.GNU-stack
                0x00000000        0x0 pegasus_crt.a(tcp_input.o)
 .note.gnu.property
                0x00000000       0x28 pegasus_crt.a(tcp_input.o)
 .note.GNU-stack
                0x00000000        0x0 pegasus_crt.a(udp.o)
 .note.gnu.property
                0x00000000       0x28 pegasus_crt.a(udp.o)
 .note.GNU-stack
                0x00000000        0x0 pegasus_crt.a(tcp_data.o)
 .note.gnu.property
                0x00000000       0x28 pegasus_crt.a(tcp_data.o)
 .note.GNU-stack
                0x00000000        0x0 pegasus_crt.a(atoi.o)
 .note.gnu.property
                0x00000000       0x28 pegasus_crt.a(atoi.o)
 .note.GNU-stack
                0x00000000        0x0 pegasus_crt.a(strtok.o)
 .note.gnu.property
                0x00000000       0x28 pegasus_crt.a(strtok.o)
 .note.GNU-stack
                0x00000000        0x0 pegasus_crt.a(strpbrk.o)
 .note.gnu.property
                0x00000000       0x28 pegasus_crt.a(strpbrk.o)
 .note.GNU-stack
                0x00000000        0x0 pegasus_crt.a(thread.o)
 .note.gnu.property
                0x00000000       0x28 pegasus_crt.a(thread.o)
 .note.GNU-stack
                0x00000000        0x0 pegasus_crt.a(udp_sock.o)
 .note.gnu.property
                0x00000000       0x28 pegasus_crt.a(udp_sock.o)
 .note.GNU-stack
                0x00000000        0x0 pegasus_crt.a(ip_output.o)
 .note.gnu.property
                0x00000000       0x28 pegasus_crt.a(ip_output.o)
 .note.GNU-stack
                0x00000000        0x0 pegasus_crt.a(sock.o)
 .note.gnu.property
                0x00000000       0x28 pegasus_crt.a(sock.o)
 .note.GNU-stack
                0x00000000        0x0 pegasus_crt.a(tcp_output.o)
 .note.gnu.property
                0x00000000       0x28 pegasus_crt.a(tcp_output.o)
 .note.GNU-stack
                0x00000000        0x0 pegasus_crt.a(dst.o)
 .note.gnu.property
                0x00000000       0x28 pegasus_crt.a(dst.o)

Memory Configuration

Name             Origin             Length             Attributes
*default*        0x00000000         0xffffffff

Linker script and memory map

Address of section .text set to 0xb0800000
LOAD test.o
LOAD start.o
LOAD pegasus_crt.a
                [!provide]                        PROVIDE (__executable_start = SEGMENT_START ("text-segment", 0x8048000))
                0x080480d4                        . = (SEGMENT_START ("text-segment", 0x8048000) + SIZEOF_HEADERS)

.interp
 *(.interp)

.note.gnu.build-id
 *(.note.gnu.build-id)

.hash
 *(.hash)

.gnu.hash
 *(.gnu.hash)

.dynsym
 *(.dynsym)

.dynstr
 *(.dynstr)

.gnu.version
 *(.gnu.version)

.gnu.version_d
 *(.gnu.version_d)

.gnu.version_r
 *(.gnu.version_r)

.rel.dyn        0x080480d4        0x0
 *(.rel.init)
 *(.rel.text .rel.text.* .rel.gnu.linkonce.t.*)
 .rel.text      0x080480d4        0x0 test.o
 *(.rel.fini)
 *(.rel.rodata .rel.rodata.* .rel.gnu.linkonce.r.*)
 *(.rel.data.rel.ro .rel.data.rel.ro.* .rel.gnu.linkonce.d.rel.ro.*)
 *(.rel.data .rel.data.* .rel.gnu.linkonce.d.*)
 *(.rel.tdata .rel.tdata.* .rel.gnu.linkonce.td.*)
 *(.rel.tbss .rel.tbss.* .rel.gnu.linkonce.tb.*)
 *(.rel.ctors)
 *(.rel.dtors)
 *(.rel.got)
 .rel.got       0x080480d4        0x0 test.o
 *(.rel.bss .rel.bss.* .rel.gnu.linkonce.b.*)
 *(.rel.ifunc)

.rel.plt        0x080480d4        0x0
 *(.rel.plt)
                [!provide]                        PROVIDE (__rel_iplt_start = .)
 *(.rel.iplt)
 .rel.iplt      0x080480d4        0x0 test.o
                [!provide]                        PROVIDE (__rel_iplt_end = .)

.relr.dyn
 *(.relr.dyn)
                0x08049000                        . = ALIGN (CONSTANT (MAXPAGESIZE))

.init
 *(SORT_NONE(.init))

.plt            0x08049000        0x0
 *(.plt)
 *(.iplt)
 .iplt          0x08049000        0x0 test.o

.plt.got
 *(.plt.got)

.plt.sec
 *(.plt.sec)

.text           0xb0800000     0xff44
 *(.text.unlikely .text.*_unlikely .text.unlikely.*)
 *(.text.exit .text.exit.*)
 *(.text.startup .text.startup.*)
 *(.text.hot .text.hot.*)
 *(SORT_BY_NAME(.text.sorted.*))
 *(.text .stub .text.* .gnu.linkonce.t.*)
 .text          0xb0800000       0x3e test.o
                0xb0800000                main
 *fill*         0xb080003e        0x2 
 .text          0xb0800040       0x15 start.o
                0xb0800040                _start
 .text          0xb0800055     0x2dc0 pegasus_crt.a(kernel_main_old.o)
                0xb0800055                stop_here
                0xb0800099                catch_error
                0xb08000b6                intr_enable
                0xb08000df                intr_disable
                0xb0800108                intr_set_status
                0xb0800126                intr_get_status
                0xb0800143                Memcpy
                0xb0800176                untar
                0xb080048b                num_to_string
                0xb0800531                disp_int
                0xb080055a                do_page_fault
                0xb0800697                exception_handler
                0xb080087e                init_internal_interrupt
                0xb08009f3                spurious_irq
                0xb0800a81                init_keyboard
                0xb0800ac4                TestTTY
                0xb0800b63                TestReadReturnValue
                0xb0800be0                TestWriteReturnValue
                0xb0800cb4                TestFS2
                0xb0800cc2                TestFS
                0xb0801164                wait_exit
                0xb0801262                INIT_fork
                0xb080155a                simple_shell
                0xb08016e1                test_shell
                0xb0801749                test_exec
                0xb080185c                INIT
                0xb0801869                TestA
                0xb080189e                delay
                0xb08018e2                TestB
                0xb08018fa                TestC
                0xb080192d                sys_get_ticks
                0xb080193d                sys_write
                0xb0801991                milli_delay
                0xb08019cd                TaskSys
                0xb08019d2                Printf
                0xb0801aa4                sprintf
                0xb0801ad0                vsprintf
                0xb0801c7c                printx
                0xb0801cbf                sys_printx
                0xb0801d8b                spin
                0xb0801db1                panic
                0xb0801dcf                assertion_failure
                0xb0801e41                assertion_failure2
                0xb0801eb6                dead_lock
                0xb0801ec0                sys_send_msg
                0xb08023df                sys_receive_msg
                0xb0802a3f                send_rec
                0xb0802b3a                block
                0xb0802b76                unblock
                0xb0802bc6                get_ticks_ipc
                0xb0802c1d                itoa
                0xb0802c73                i2a
                0xb0802cd9                inform_int
                0xb0802da6                deprecate_strcmp
 .text          0xb0802e15      0x3b3 pegasus_crt.a(protect.o)
                0xb0802e15                InitDescriptor
                0xb0802e82                Seg2PhyAddr
                0xb0802ec3                Seg2PhyAddrLDT
                0xb0802f07                VirAddr2PhyAddr
                0xb0802f1d                v2l
                0xb0802f60                init_propt
                0xb08030e1                InitInterruptDesc
                0xb080313d                ReloadGDT
 .text          0xb08031c8      0xaca pegasus_crt.a(console.o)
                0xb08031c8                select_console
                0xb0803204                flush
                0xb080323d                set_cursor
                0xb080329b                set_console_start_video_addr
                0xb08032f9                put_key
                0xb0803365                scroll_up
                0xb08033a7                scroll_down
                0xb0803412                out_char
                0xb08035cf                tty_dev_read
                0xb08035f9                tty_dev_write
                0xb0803826                tty_do_read
                0xb08038ee                tty_do_write
                0xb0803a51                init_screen
                0xb0803ada                init_tty
                0xb0803b8f                TaskTTY
 .text          0xb0803c92      0x25a pegasus_crt.a(process.o)
                0xb0803c92                schedule_process
                0xb0803e00                clock_handler
                0xb0803e71                pid2proc
                0xb0803ed5                proc2pid
 .text          0xb0803eec        0x0 pegasus_crt.a(global.o)
 .text          0xb0803eec      0x40f pegasus_crt.a(keyboard.o)
                0xb0803eec                keyboard_handler
                0xb0803f70                read_from_keyboard_buf
                0xb0803fd6                keyboard_read
                0xb0804155                init_keyboard_handler
                0xb0804169                in_process
 .text          0xb08042fb       0x98 pegasus_crt.a(task_network.o)
                0xb08042fb                task_network
                0xb080437b                task_netdev_rx
 .text          0xb0804393      0xe5b pegasus_crt.a(hd.o)
                0xb0804393                TaskHD
                0xb08043d8                init_hd
                0xb08043f2                hd_handle
                0xb08044f7                hd_cmd_out
                0xb08045f9                hd_identify
                0xb08046b0                print_hdinfo
                0xb080483e                print_dpt_entry
                0xb08048aa                get_partition_table
                0xb0804989                partition
                0xb0804ba3                hd_open
                0xb0804c4a                get_hd_ioctl
                0xb0804cfb                wait_for
                0xb0804d2c                interrupt_wait
                0xb0804d7c                hd_rdwt
                0xb080501b                hd_handler
                0xb0805047                debug_ticks
                0xb0805085                waitfor
                0xb08050c9                print_hd_info
                0xb08051b6                is_empty
 .text          0xb08051ee     0x2069 pegasus_crt.a(fs_main.o)
                0xb08051ee                task_fs
                0xb08053f9                rd_wt
                0xb08054d2                mkfs
                0xb0805ab4                init_fs
                0xb0805b08                do_open
                0xb0805d11                search_file
                0xb0805e43                strip_path
                0xb0805f0f                get_inode
                0xb08060d1                create_file
                0xb08061dc                alloc_imap_bit
                0xb08062d9                alloc_smap_bit
                0xb080647a                new_inode
                0xb0806598                new_dir_entry
                0xb08067a4                do_unlink
                0xb0806c80                do_rdwt
                0xb080700b                sync_inode
                0xb080715f                put_inode
                0xb080719d                do_close
                0xb08071ef                get_super_block
 .text          0xb0807257      0x148 pegasus_crt.a(main.o)
                0xb0807257                TaskMM
                0xb0807380                alloc_mem
 .text          0xb080739f     0x124e pegasus_crt.a(mem.o)
                0xb080739f                init_bitmap
                0xb08073c2                test_bit_val
                0xb080742b                set_bit_val
                0xb08074a6                set_bits
                0xb08074e0                get_first_free_bit
                0xb0807524                get_bits
                0xb08075ec                get_a_page
                0xb08076a0                get_virtual_address_start_with_addr
                0xb080773a                get_virtual_address
                0xb08077ca                ptr_pde
                0xb08077dd                ptr_pte
                0xb0807804                add_map_entry
                0xb0807895                alloc_virtual_memory
                0xb0807968                get_physical_address_proc
                0xb08079e4                get_physical_address
                0xb0807a16                alloc_physical_memory_of_proc
                0xb0807b05                alloc_physical_memory
                0xb0807bcd                alloc_memory
                0xb0807c2f                get_a_virtual_page
                0xb0807c67                block2arena
                0xb0807c7d                sys_malloc2
                0xb0807f46                remove_map_entry
                0xb0807f67                free_a_page
                0xb080800e                sys_free2
                0xb0808196                init_memory_block_desc
                0xb0808267                init_memory2
                0xb08084ad                init_memory
 .text          0xb08085ed      0x285 pegasus_crt.a(exec.o)
                0xb08085ed                exec
                0xb080865e                execv
                0xb080884d                execl
 .text          0xb0808872       0x2f pegasus_crt.a(exit.o)
                0xb0808872                exit
 .text          0xb08088a1       0x44 pegasus_crt.a(wait.o)
                0xb08088a1                wait
 .text          0xb08088e5       0x48 pegasus_crt.a(fork.o)
                0xb08088e5                fork
 .text          0xb080892d       0xa8 pegasus_crt.a(strcmp.o)
                0xb080892d                strcmp
 .text          0xb08089d5      0x181 pegasus_crt.a(read.o)
                0xb08089d5                read
 .text          0xb0808b56       0x95 pegasus_crt.a(open.o)
                0xb0808b56                open
 .text          0xb0808beb       0x85 pegasus_crt.a(write.o)
                0xb0808beb                write
 .text          0xb0808c70       0x52 pegasus_crt.a(close.o)
                0xb0808c70                close
 *fill*         0xb0808cc2        0xe 
 .text          0xb0808cd0      0x3d7 pegasus_crt.a(kernel.o)
                0xb0808cd0                InterruptTest
                0xb0808cdc                disp_str_len
                0xb0808d29                disp_str
                0xb0808d64                disp_str_colour
                0xb0808da0                divide_zero_fault
                0xb0808da6                single_step_fault
                0xb0808dac                non_maskable_interrupt
                0xb0808db2                breakpoint_trap
                0xb0808db8                overflow_trap
                0xb0808dbe                bound_range_exceeded_fault
                0xb0808dc4                invalid_opcode_fault
                0xb0808dca                coprocessor_not_available_fault
                0xb0808dd0                double_fault_exception_abort
                0xb0808dd4                coprocessor_segment_overrun
                0xb0808dda                invalid_task_state_segment_fault
                0xb0808dde                segment_not_present_fault
                0xb0808de2                stack_exception_fault
                0xb0808de6                general_protection_exception_fault
                0xb0808df1                page_fault
                0xb0808df5                coprocessor_error_fault
                0xb0808dfb                align_check_fault
                0xb0808dff                simd_float_exception_fault
                0xb0808e0e                hwint0
                0xb0808e3e                hwint1
                0xb0808e81                hwint14
                0xb0808ec7                hwint10
                0xb0808f0a                sys_call
                0xb0808f50                fork_restart
                0xb0808f5f                restart
                0xb0808f82                in_byte
                0xb0808f8e                out_byte
                0xb0808fb0                disable_int
                0xb0808fb2                enable_int
                0xb0809048                enable_8259A_casecade_irq
                0xb0809052                disable_8259A_casecade_irq
                0xb080905c                enable_8259A_slave_winchester_irq
                0xb0809066                disable_8259A_slave_winchester_irq
                0xb0809070                update_cr3
                0xb080907d                update_tss
                0xb080908c                get_running_thread_pcb
                0xb0809094                sys_call_test
                0xb0809097                enable_8259A_slave_net_irq
 *fill*         0xb08090a7        0x9 
 .text          0xb08090b0       0x15 pegasus_crt.a(switch_to.o)
                0xb08090b0                switch_to
 *fill*         0xb08090c5        0xb 
 .text          0xb08090d0       0x69 pegasus_crt.a(syscall.o)
                0xb08090d0                write_debug
                0xb08090e0                send_msg
                0xb08090f6                receive_msg
                0xb080910c                sys_malloc
                0xb0809121                sys_free
 .text          0xb0809139      0x24c pegasus_crt.a(double_link_list.o)
                0xb0809139                initDoubleLinkList
                0xb0809189                isListEmpty
                0xb08091b7                findElementInList
                0xb080924e                appendToDoubleLinkList
                0xb08092f4                insertToDoubleLinkList
                0xb080934d                popFromDoubleLinkList
 .text          0xb0809385      0x3e0 pegasus_crt.a(netdev.o)
                0xb0809497                netdev_init
                0xb08094de                netdev_transmit
                0xb0809624                netdev_rx_loop
                0xb080969e                netdev_get
                0xb08096bb                free_netdev
                0xb08096e6                local_ipaddress
                0xb0809723                receive_msg_from_nic
                0xb080975d                net_handler
 .text          0xb0809765      0x6dc pegasus_crt.a(arp.o)
                0xb0809932                arp_init
                0xb0809938                arp_rcv
                0xb0809aea                arp_request
                0xb0809c54                arp_reply
                0xb0809da4                arp_get_hwaddr
                0xb0809df0                free_arp
 .text          0xb0809e41      0x12e pegasus_crt.a(skbuff.o)
                0xb0809e5a                alloc_skb
                0xb0809eeb                free_skb
                0xb0809ef1                skb_reserve
                0xb0809f0d                skb_push
                0xb0809f3c                skb_head
                0xb0809f47                skb_reset_header
 .text          0xb0809f6f      0x295 pegasus_crt.a(route.o)
                0xb080a09c                route_add
                0xb080a0e1                route_init
                0xb080a168                route_lookup
                0xb080a1b3                free_routes
 .text          0xb080a204      0x1e7 pegasus_crt.a(utils.o)
                0xb080a204                run_cmd
                0xb080a211                print_err
                0xb080a228                parse_ipv4_string
                0xb080a287                ip_pton
                0xb080a2cf                sum_every_16bits
                0xb080a326                checksum
                0xb080a367                tcp_udp_checksum
 .text          0xb080a3eb      0x24f pegasus_crt.a(forkexit.o)
                0xb080a3eb                do_fork
                0xb080a459                do_exit
                0xb080a4e3                do_wait
                0xb080a5e0                cleanup
 .text          0xb080a63a      0x419 pegasus_crt.a(exec.o)
                0xb080a63a                do_exec
 .text          0xb080aa53       0x17 pegasus_crt.a(perror.o)
                0xb080aa53                perror
 .text          0xb080aa6a      0x2c1 pegasus_crt.a(sscanf.o)
                0xb080aa6a                sscanf
 .text          0xb080ad2b       0x38 pegasus_crt.a(ntohs.o)
                0xb080ad2b                ntohs
 .text          0xb080ad63       0x7c pegasus_crt.a(htonl.o)
                0xb080ad63                htonl
 .text          0xb080addf       0x38 pegasus_crt.a(htons.o)
                0xb080addf                htons
 .text          0xb080ae17      0x295 pegasus_crt.a(inet_pton.o)
                0xb080ae17                isValidIPv4
                0xb080afa1                inet_pton
 .text          0xb080b0ac       0x7c pegasus_crt.a(ntohl.o)
                0xb080b0ac                ntohl
 *fill*         0xb080b128        0x8 
 .text          0xb080b130      0x259 pegasus_crt.a(ne2000.o)
                0xb080b153                DriverInitialize
                0xb080b1dd                SetPageStart
                0xb080b205                DriverSend
                0xb080b27a                PCtoNIC
                0xb080b2e8                get_interrupt_status
                0xb080b2fe                set_interrupt_status
                0xb080b317                get_curr_page
                0xb080b334                NICtoPC
 .text          0xb080b389      0x730 pegasus_crt.a(my_process.o)
                0xb080b389                create_user_process_address_space
                0xb080b419                user_process
                0xb080b546                clone_pcb
                0xb080b6b8                build_body_stack
                0xb080b7eb                build_process_kernel_stack
                0xb080b8ae                fork_process
                0xb080b93f                process_execute
 .text          0xb080bab9      0x2da pegasus_crt.a(ip_input.o)
                0xb080bc43                ip_rcv
 .text          0xb080bd93      0x448 pegasus_crt.a(tcp.o)
                0xb080bf88                tcp_in
                0xb080c03c                tcp_checksum
                0xb080c068                __tcp_set_state
                0xb080c077                tcp_generate_port
                0xb080c0c0                tcp_generate_isn
                0xb080c0ca                tcp_done
                0xb080c0f3                tcp_clear_timers
                0xb080c102                tcp_stop_retransmission_timer
                0xb080c11b                tcp_release_retransmission_timer
                0xb080c134                tcp_stop_delack_timer
                0xb080c147                tcp_release_delack_timer
                0xb080c15a                tcp_handle_fin_state
                0xb080c1bf                tcp_enter_time_wait
 .text          0xb080c1db      0xa16 pegasus_crt.a(tcp_sock.o)
                0xb080c489                tcp_established_or_syn_recvd_socks_enqueue
                0xb080c4a0                tcp_established_or_syn_recvd_socks_remove
                0xb080c4b2                tcp_connecting_or_listening_socks_enqueue
                0xb080c4c9                tcp_connecting_or_listening_socks_remove
                0xb080c4db                tcp_alloc_sock
                0xb080c5f1                tcp_free_sock
                0xb080c66a                tcp_init
                0xb080c674                tcp_sock_init
                0xb080c717                tcp_write
                0xb080c758                tcp_read
                0xb080c80b                tcp_close
                0xb080c8c9                tcp_recv_notify
                0xb080c8f4                tcp_v4_connect
                0xb080cb44                tcp_lookup_sock
 .text          0xb080cbf1      0x234 pegasus_crt.a(icmpv4.o)
                0xb080cbff                icmpv4_incoming
                0xb080cc73                icmpv4_reply
                0xb080cd4c                icmpv4_timestamp
 .text          0xb080ce25      0xb6f pegasus_crt.a(tcp_input.o)
                0xb080d50c                tcp_process
                0xb080d8d2                tcp_receive
 .text          0xb080d994      0x3e0 pegasus_crt.a(udp.o)
                0xb080da9f                udp_generate_port
                0xb080dae8                udp_checksum
                0xb080dbb6                udp_in
                0xb080dc47                udp_data_dequeue
                0xb080dd4f                udp_data_enqueue
 .text          0xb080dd74      0x54a pegasus_crt.a(tcp_data.o)
                0xb080e05f                tcp_data_dequeue
                0xb080e18c                tcp_data_queue
 .text          0xb080e2be       0x9c pegasus_crt.a(atoi.o)
                0xb080e2be                atoi
 .text          0xb080e35a       0x85 pegasus_crt.a(strtok.o)
                0xb080e35a                strtok
 .text          0xb080e3df       0x90 pegasus_crt.a(strpbrk.o)
                0xb080e3df                strpbrk
 .text          0xb080e46f      0x1b2 pegasus_crt.a(thread.o)
                0xb080e46f                kernel_thread
                0xb080e487                thread_init
                0xb080e534                thread_create
                0xb080e569                thread_start
 .text          0xb080e621      0x8bc pegasus_crt.a(udp_sock.o)
                0xb080e84e                udp_lookup_sock
                0xb080e895                udp_init
                0xb080e8c6                udp_close
                0xb080e8ec                udp_sock_init
                0xb080e8f6                udp_recvfrom
                0xb080e98f                udp_connect
                0xb080ea68                udp_write
                0xb080ea94                udp_alloc_skb
                0xb080eade                udp_sendto
                0xb080ebd2                udp_send
                0xb080ed10                udp_alloc_sock
                0xb080ed51                udp_free_sock
                0xb080ed75                udp_read
 .text          0xb080eedd      0x1d3 pegasus_crt.a(ip_output.o)
                0xb080eeeb                ip_output
 .text          0xb080f0b0      0x203 pegasus_crt.a(sock.o)
                0xb080f1e2                sk_alloc
                0xb080f209                sk_init
                0xb080f25d                sk_init_with_socket
                0xb080f286                sk_free
 .text          0xb080f2b3      0xbb9 pegasus_crt.a(tcp_output.o)
                0xb080f774                tcp_send_synack
                0xb080f817                tcp_send_delack
                0xb080f852                tcp_send_ack
                0xb080f99e                tcp_send_fin
                0xb080fa13                tcp_select_initial_window
                0xb080fbc5                tcp_reset_retransmission_timer
                0xb080fbe2                tcp_begin_connect
                0xb080fc8c                tcp_send
                0xb080fd71                tcp_send_reset
                0xb080fdf1                tcp_queue_fin
 .text          0xb080fe6c       0xd8 pegasus_crt.a(dst.o)
                0xb080fe7a                dst_neigh_output
 *(.gnu.warning)

.fini
 *(SORT_NONE(.fini))
                [!provide]                        PROVIDE (__etext = .)
                [!provide]                        PROVIDE (_etext = .)
                [!provide]                        PROVIDE (etext = .)
                0xb0810000                        . = ALIGN (CONSTANT (MAXPAGESIZE))
                0xb0810000                        . = SEGMENT_START ("rodata-segment", (ALIGN (CONSTANT (MAXPAGESIZE)) + (. & (CONSTANT (MAXPAGESIZE) - 0x1))))

.rodata         0xb0810000     0x1640
 *(.rodata .rodata.* .gnu.linkonce.r.*)
 .rodata        0xb0810000       0x10 test.o
 *fill*         0xb0810010       0x10 
 .rodata        0xb0810020      0xb61 pegasus_crt.a(kernel_main_old.o)
 .rodata        0xb0810b81       0x22 pegasus_crt.a(console.o)
 .rodata        0xb0810ba3       0x28 pegasus_crt.a(process.o)
 *fill*         0xb0810bcb        0x1 
 .rodata        0xb0810bcc       0x3d pegasus_crt.a(task_network.o)
 *fill*         0xb0810c09        0x3 
 .rodata        0xb0810c0c      0x19c pegasus_crt.a(hd.o)
 .rodata        0xb0810da8      0x1fb pegasus_crt.a(fs_main.o)
                0xb0810da8                FSBUF_SIZE
 .rodata        0xb0810fa3       0x11 pegasus_crt.a(main.o)
 .rodata        0xb0810fb4       0x3f pegasus_crt.a(mem.o)
 .rodata        0xb0810ff3       0x2d pegasus_crt.a(exec.o)
 .rodata        0xb0811020       0x2a pegasus_crt.a(close.o)
 .rodata        0xb081104a       0x36 pegasus_crt.a(double_link_list.o)
 .rodata        0xb0811080       0xcb pegasus_crt.a(netdev.o)
 *fill*         0xb081114b        0x1 
 .rodata        0xb081114c       0x9c pegasus_crt.a(arp.o)
 .rodata        0xb08111e8        0x9 pegasus_crt.a(skbuff.o)
 *fill*         0xb08111f1        0x3 
 .rodata        0xb08111f4       0x37 pegasus_crt.a(route.o)
 *fill*         0xb081122b        0x1 
 .rodata        0xb081122c       0x41 pegasus_crt.a(utils.o)
 .rodata        0xb081126d       0x21 pegasus_crt.a(forkexit.o)
 .rodata        0xb081128e       0x10 pegasus_crt.a(exec.o)
 .rodata        0xb081129e        0x3 pegasus_crt.a(inet_pton.o)
 *fill*         0xb08112a1        0x3 
 .rodata        0xb08112a4       0xb5 pegasus_crt.a(ip_input.o)
 *fill*         0xb0811359        0x3 
 .rodata        0xb081135c       0x31 pegasus_crt.a(tcp.o)
 *fill*         0xb081138d        0x3 
 .rodata        0xb0811390       0xe8 pegasus_crt.a(tcp_sock.o)
 .rodata        0xb0811478       0x32 pegasus_crt.a(icmpv4.o)
 *fill*         0xb08114aa        0x2 
 .rodata        0xb08114ac       0x60 pegasus_crt.a(tcp_input.o)
 .rodata        0xb081150c        0x9 pegasus_crt.a(udp.o)
 .rodata        0xb0811515       0x1e pegasus_crt.a(tcp_data.o)
 *fill*         0xb0811533        0x1 
 .rodata        0xb0811534       0x2d pegasus_crt.a(udp_sock.o)
 .rodata        0xb0811561        0x9 pegasus_crt.a(ip_output.o)
 .rodata        0xb081156a        0x9 pegasus_crt.a(sock.o)
 *fill*         0xb0811573        0x1 
 .rodata        0xb0811574       0xc3 pegasus_crt.a(tcp_output.o)
 .rodata        0xb0811637        0x9 pegasus_crt.a(dst.o)

.txt            0xb0811640       0xaa
 .txt           0xb0811640       0x82 pegasus_crt.a(string.o)
                0xb0811640                Memcpy2
                0xb081166e                Memset
                0xb081168d                Strcpy
                0xb08116a7                Strlen
 .txt           0xb08116c2       0x28 pegasus_crt.a(hd_rdwt.o)
                0xb08116c2                read_port
                0xb08116d6                write_port

.rodata1
 *(.rodata1)

.eh_frame_hdr
 *(.eh_frame_hdr)
 *(.eh_frame_entry .eh_frame_entry.*)

.eh_frame       0xb08116ec     0x38f4
 *(.eh_frame)
 .eh_frame      0xb08116ec       0x44 test.o
 .eh_frame      0xb0811730      0x6cc pegasus_crt.a(kernel_main_old.o)
                                0x6e4 (size before relaxing)
 .eh_frame      0xb0811dfc      0x100 pegasus_crt.a(protect.o)
                                0x118 (size before relaxing)
 .eh_frame      0xb0811efc      0x1e0 pegasus_crt.a(console.o)
                                0x1f8 (size before relaxing)
 .eh_frame      0xb08120dc       0x80 pegasus_crt.a(process.o)
                                 0x98 (size before relaxing)
 .eh_frame      0xb081215c       0xa0 pegasus_crt.a(keyboard.o)
                                 0xb8 (size before relaxing)
 .eh_frame      0xb08121fc       0x38 pegasus_crt.a(task_network.o)
                                 0x50 (size before relaxing)
 .eh_frame      0xb0812234      0x264 pegasus_crt.a(hd.o)
                                0x27c (size before relaxing)
 .eh_frame      0xb0812498      0x27c pegasus_crt.a(fs_main.o)
                                0x294 (size before relaxing)
 .eh_frame      0xb0812714       0x3c pegasus_crt.a(main.o)
                                 0x54 (size before relaxing)
 .eh_frame      0xb0812750      0x364 pegasus_crt.a(mem.o)
                                0x37c (size before relaxing)
 .eh_frame      0xb0812ab4       0x60 pegasus_crt.a(exec.o)
                                 0x78 (size before relaxing)
 .eh_frame      0xb0812b14       0x20 pegasus_crt.a(exit.o)
                                 0x38 (size before relaxing)
 .eh_frame      0xb0812b34       0x20 pegasus_crt.a(wait.o)
                                 0x38 (size before relaxing)
 .eh_frame      0xb0812b54       0x20 pegasus_crt.a(fork.o)
                                 0x38 (size before relaxing)
 .eh_frame      0xb0812b74       0x20 pegasus_crt.a(strcmp.o)
                                 0x38 (size before relaxing)
 .eh_frame      0xb0812b94       0x20 pegasus_crt.a(read.o)
                                 0x38 (size before relaxing)
 .eh_frame      0xb0812bb4       0x20 pegasus_crt.a(open.o)
                                 0x38 (size before relaxing)
 .eh_frame      0xb0812bd4       0x20 pegasus_crt.a(write.o)
                                 0x38 (size before relaxing)
 .eh_frame      0xb0812bf4       0x20 pegasus_crt.a(close.o)
                                 0x38 (size before relaxing)
 .eh_frame      0xb0812c14       0xc0 pegasus_crt.a(double_link_list.o)
                                 0xd8 (size before relaxing)
 .eh_frame      0xb0812cd4      0x18c pegasus_crt.a(netdev.o)
                                0x1a4 (size before relaxing)
 .eh_frame      0xb0812e60      0x1c0 pegasus_crt.a(arp.o)
                                0x1d8 (size before relaxing)
 .eh_frame      0xb0813020       0xe0 pegasus_crt.a(skbuff.o)
                                 0xf8 (size before relaxing)
 .eh_frame      0xb0813100      0x124 pegasus_crt.a(route.o)
                                0x13c (size before relaxing)
 .eh_frame      0xb0813224       0xe4 pegasus_crt.a(utils.o)
                                 0xfc (size before relaxing)
 .eh_frame      0xb0813308       0x80 pegasus_crt.a(forkexit.o)
                                 0x98 (size before relaxing)
 .eh_frame      0xb0813388       0x20 pegasus_crt.a(exec.o)
                                 0x38 (size before relaxing)
 .eh_frame      0xb08133a8       0x20 pegasus_crt.a(perror.o)
                                 0x38 (size before relaxing)
 .eh_frame      0xb08133c8       0x20 pegasus_crt.a(sscanf.o)
                                 0x38 (size before relaxing)
 .eh_frame      0xb08133e8       0x20 pegasus_crt.a(ntohs.o)
                                 0x38 (size before relaxing)
 .eh_frame      0xb0813408       0x20 pegasus_crt.a(htonl.o)
                                 0x38 (size before relaxing)
 .eh_frame      0xb0813428       0x20 pegasus_crt.a(htons.o)
                                 0x38 (size before relaxing)
 .eh_frame      0xb0813448       0x40 pegasus_crt.a(inet_pton.o)
                                 0x58 (size before relaxing)
 .eh_frame      0xb0813488       0x20 pegasus_crt.a(ntohl.o)
                                 0x38 (size before relaxing)
 .eh_frame      0xb08134a8       0xe0 pegasus_crt.a(my_process.o)
                                 0xf8 (size before relaxing)
 .eh_frame      0xb0813588      0x104 pegasus_crt.a(ip_input.o)
                                0x11c (size before relaxing)
 .eh_frame      0xb081368c      0x268 pegasus_crt.a(tcp.o)
                                0x280 (size before relaxing)
 .eh_frame      0xb08138f4      0x4c0 pegasus_crt.a(tcp_sock.o)
                                0x4d8 (size before relaxing)
 .eh_frame      0xb0813db4       0x80 pegasus_crt.a(icmpv4.o)
                                 0x98 (size before relaxing)
 .eh_frame      0xb0813e34      0x300 pegasus_crt.a(tcp_input.o)
                                0x318 (size before relaxing)
 .eh_frame      0xb0814134      0x1e4 pegasus_crt.a(udp.o)
                                0x1fc (size before relaxing)
 .eh_frame      0xb0814318      0x200 pegasus_crt.a(tcp_data.o)
                                0x218 (size before relaxing)
 .eh_frame      0xb0814518       0x20 pegasus_crt.a(atoi.o)
                                 0x38 (size before relaxing)
 .eh_frame      0xb0814538       0x20 pegasus_crt.a(strtok.o)
                                 0x38 (size before relaxing)
 .eh_frame      0xb0814558       0x20 pegasus_crt.a(strpbrk.o)
                                 0x38 (size before relaxing)
 .eh_frame      0xb0814578       0x80 pegasus_crt.a(thread.o)
                                 0x98 (size before relaxing)
 .eh_frame      0xb08145f8      0x404 pegasus_crt.a(udp_sock.o)
                                0x41c (size before relaxing)
 .eh_frame      0xb08149fc       0x40 pegasus_crt.a(ip_output.o)
                                 0x58 (size before relaxing)
 .eh_frame      0xb0814a3c      0x1a0 pegasus_crt.a(sock.o)
                                0x1b8 (size before relaxing)
 .eh_frame      0xb0814bdc      0x3c4 pegasus_crt.a(tcp_output.o)
                                0x3dc (size before relaxing)
 .eh_frame      0xb0814fa0       0x40 pegasus_crt.a(dst.o)
                                 0x58 (size before relaxing)
 *(.eh_frame.*)

.sframe
 *(.sframe)
 *(.sframe.*)

.gcc_except_table
 *(.gcc_except_table .gcc_except_table.*)

.gnu_extab
 *(.gnu_extab*)

.exception_ranges
 *(.exception_ranges*)
                0xb0815000                        . = DATA_SEGMENT_ALIGN (CONSTANT (MAXPAGESIZE), CONSTANT (COMMONPAGESIZE))

.eh_frame
 *(.eh_frame)
 *(.eh_frame.*)

.sframe
 *(.sframe)
 *(.sframe.*)

.gnu_extab
 *(.gnu_extab)

.gcc_except_table
 *(.gcc_except_table .gcc_except_table.*)

.exception_ranges
 *(.exception_ranges*)

.tdata          0xb0815000        0x0
                [!provide]                        PROVIDE (__tdata_start = .)
 *(.tdata .tdata.* .gnu.linkonce.td.*)

.tbss
 *(.tbss .tbss.* .gnu.linkonce.tb.*)
 *(.tcommon)

.preinit_array  0xb0815000        0x0
                [!provide]                        PROVIDE (__preinit_array_start = .)
 *(.preinit_array)
                [!provide]                        PROVIDE (__preinit_array_end = .)

.init_array     0xb0815000        0x0
                [!provide]                        PROVIDE (__init_array_start = .)
 *(SORT_BY_INIT_PRIORITY(.init_array.*) SORT_BY_INIT_PRIORITY(.ctors.*))
 *(.init_array EXCLUDE_FILE(*crtend?.o *crtend.o *crtbegin?.o *crtbegin.o) .ctors)
                [!provide]                        PROVIDE (__init_array_end = .)

.fini_array     0xb0815000        0x0
                [!provide]                        PROVIDE (__fini_array_start = .)
 *(SORT_BY_INIT_PRIORITY(.fini_array.*) SORT_BY_INIT_PRIORITY(.dtors.*))
 *(.fini_array EXCLUDE_FILE(*crtend?.o *crtend.o *crtbegin?.o *crtbegin.o) .dtors)
                [!provide]                        PROVIDE (__fini_array_end = .)

.ctors
 *crtbegin.o(.ctors)
 *crtbegin?.o(.ctors)
 *(EXCLUDE_FILE(*crtend?.o *crtend.o) .ctors)
 *(SORT_BY_NAME(.ctors.*))
 *(.ctors)

.dtors
 *crtbegin.o(.dtors)
 *crtbegin?.o(.dtors)
 *(EXCLUDE_FILE(*crtend?.o *crtend.o) .dtors)
 *(SORT_BY_NAME(.dtors.*))
 *(.dtors)

.jcr
 *(.jcr)

.data.rel.ro
 *(.data.rel.ro.local* .gnu.linkonce.d.rel.ro.local.*)
 *(.data.rel.ro .data.rel.ro.* .gnu.linkonce.d.rel.ro.*)

.dynamic
 *(.dynamic)

.got            0xb0815000        0x0
 *(.got)
 .got           0xb0815000        0x0 test.o
 *(.igot)
                0xb0815000                        . = DATA_SEGMENT_RELRO_END (., (SIZEOF (.got.plt) >= 0xc)?0xc:0x0)

.got.plt        0xb0815000        0x0
 *(.got.plt)
 .got.plt       0xb0815000        0x0 test.o
 *(.igot.plt)
 .igot.plt      0xb0815000        0x0 test.o

.data           0xb0815000      0x8a4
 *(.data .data.* .gnu.linkonce.d.*)
 .data          0xb0815000        0x0 test.o
 .data          0xb0815000        0x0 pegasus_crt.a(kernel_main_old.o)
 .data          0xb0815000        0x0 pegasus_crt.a(protect.o)
 .data          0xb0815000        0x0 pegasus_crt.a(console.o)
 .data          0xb0815000        0x0 pegasus_crt.a(process.o)
 .data          0xb0815000      0x160 pegasus_crt.a(global.o)
                0xb0815000                user_task_table
                0xb0815080                sys_task_table
                0xb0815144                sys_call_table
 .data          0xb0815160      0x600 pegasus_crt.a(keyboard.o)
                0xb0815160                keymap
 .data          0xb0815760        0x0 pegasus_crt.a(task_network.o)
 .data          0xb0815760        0x0 pegasus_crt.a(hd.o)
 .data          0xb0815760        0x0 pegasus_crt.a(fs_main.o)
 .data          0xb0815760        0x0 pegasus_crt.a(main.o)
 .data          0xb0815760        0x0 pegasus_crt.a(mem.o)
 .data          0xb0815760        0x0 pegasus_crt.a(exec.o)
 .data          0xb0815760        0x0 pegasus_crt.a(exit.o)
 .data          0xb0815760        0x0 pegasus_crt.a(wait.o)
 .data          0xb0815760        0x0 pegasus_crt.a(fork.o)
 .data          0xb0815760        0x0 pegasus_crt.a(strcmp.o)
 .data          0xb0815760        0x0 pegasus_crt.a(read.o)
 .data          0xb0815760        0x0 pegasus_crt.a(open.o)
 .data          0xb0815760        0x0 pegasus_crt.a(write.o)
 .data          0xb0815760        0x0 pegasus_crt.a(close.o)
 .data          0xb0815760        0xf pegasus_crt.a(kernel.o)
 *fill*         0xb081576f        0x1 
 .data          0xb0815770        0x0 pegasus_crt.a(syscall.o)
 .data          0xb0815770        0x0 pegasus_crt.a(double_link_list.o)
 .data          0xb0815770        0x4 pegasus_crt.a(netdev.o)
 .data          0xb0815774       0x14 pegasus_crt.a(arp.o)
 .data          0xb0815788        0x4 pegasus_crt.a(skbuff.o)
 .data          0xb081578c        0xc pegasus_crt.a(route.o)
 .data          0xb0815798        0x4 pegasus_crt.a(utils.o)
 .data          0xb081579c        0x0 pegasus_crt.a(forkexit.o)
 .data          0xb081579c        0x0 pegasus_crt.a(exec.o)
 .data          0xb081579c        0x0 pegasus_crt.a(perror.o)
 .data          0xb081579c        0x0 pegasus_crt.a(sscanf.o)
 .data          0xb081579c        0x0 pegasus_crt.a(ntohs.o)
 .data          0xb081579c        0x0 pegasus_crt.a(htonl.o)
 .data          0xb081579c        0x0 pegasus_crt.a(htons.o)
 .data          0xb081579c        0x0 pegasus_crt.a(inet_pton.o)
 .data          0xb081579c        0x0 pegasus_crt.a(ntohl.o)
 .data          0xb081579c        0x0 pegasus_crt.a(my_process.o)
 .data          0xb081579c        0x4 pegasus_crt.a(ip_input.o)
 .data          0xb08157a0        0x8 pegasus_crt.a(tcp.o)
 *fill*         0xb08157a8       0x18 
 .data          0xb08157c0       0x54 pegasus_crt.a(tcp_sock.o)
                0xb08157e0                tcp_ops
 .data          0xb0815814        0x4 pegasus_crt.a(icmpv4.o)
 .data          0xb0815818        0x4 pegasus_crt.a(tcp_input.o)
 .data          0xb081581c        0x8 pegasus_crt.a(udp.o)
 .data          0xb0815824        0x4 pegasus_crt.a(tcp_data.o)
 .data          0xb0815828        0x0 pegasus_crt.a(atoi.o)
 .data          0xb0815828        0x0 pegasus_crt.a(strtok.o)
 .data          0xb0815828        0x0 pegasus_crt.a(strpbrk.o)
 .data          0xb0815828        0x0 pegasus_crt.a(thread.o)
 *fill*         0xb0815828       0x18 
 .data          0xb0815840       0x54 pegasus_crt.a(udp_sock.o)
                0xb0815860                udp_ops
 .data          0xb0815894        0x4 pegasus_crt.a(ip_output.o)
 .data          0xb0815898        0x4 pegasus_crt.a(sock.o)
 .data          0xb081589c        0x4 pegasus_crt.a(tcp_output.o)
 .data          0xb08158a0        0x4 pegasus_crt.a(dst.o)

.data1
 *(.data1)
                0xb08158a4                        _edata = .
                [!provide]                        PROVIDE (edata = .)
                0xb08158a4                        . = .
                0xb08158a4                        __bss_start = .

.bss            0xb08158c0    0x95198
 *(.dynbss)
 *(.bss .bss.* .gnu.linkonce.b.*)
 .bss           0xb08158c0        0x0 test.o
 .bss           0xb08158c0        0x0 pegasus_crt.a(kernel_main_old.o)
 .bss           0xb08158c0        0x0 pegasus_crt.a(protect.o)
 .bss           0xb08158c0        0x0 pegasus_crt.a(console.o)
 .bss           0xb08158c0        0x0 pegasus_crt.a(process.o)
 .bss           0xb08158c0        0x0 pegasus_crt.a(global.o)
 .bss           0xb08158c0        0x0 pegasus_crt.a(keyboard.o)
 .bss           0xb08158c0        0x0 pegasus_crt.a(task_network.o)
 .bss           0xb08158c0        0x0 pegasus_crt.a(hd.o)
 .bss           0xb08158c0        0x4 pegasus_crt.a(fs_main.o)
                0xb08158c0                c
 .bss           0xb08158c4        0x0 pegasus_crt.a(main.o)
 .bss           0xb08158c4        0x0 pegasus_crt.a(mem.o)
 .bss           0xb08158c4        0x0 pegasus_crt.a(exec.o)
 .bss           0xb08158c4        0x0 pegasus_crt.a(exit.o)
 .bss           0xb08158c4        0x0 pegasus_crt.a(wait.o)
 .bss           0xb08158c4        0x0 pegasus_crt.a(fork.o)
 .bss           0xb08158c4        0x0 pegasus_crt.a(strcmp.o)
 .bss           0xb08158c4        0x0 pegasus_crt.a(read.o)
 .bss           0xb08158c4        0x0 pegasus_crt.a(open.o)
 .bss           0xb08158c4        0x0 pegasus_crt.a(write.o)
 .bss           0xb08158c4        0x0 pegasus_crt.a(close.o)
 .bss           0xb08158c4      0x800 pegasus_crt.a(kernel.o)
 .bss           0xb08160c4        0x0 pegasus_crt.a(double_link_list.o)
 .bss           0xb08160c4        0x0 pegasus_crt.a(netdev.o)
 .bss           0xb08160c4        0x0 pegasus_crt.a(arp.o)
 .bss           0xb08160c4        0x0 pegasus_crt.a(skbuff.o)
 .bss           0xb08160c4        0x0 pegasus_crt.a(route.o)
 .bss           0xb08160c4        0x0 pegasus_crt.a(utils.o)
 .bss           0xb08160c4        0x0 pegasus_crt.a(forkexit.o)
 .bss           0xb08160c4        0x0 pegasus_crt.a(exec.o)
 .bss           0xb08160c4        0x0 pegasus_crt.a(perror.o)
 .bss           0xb08160c4        0x0 pegasus_crt.a(sscanf.o)
 .bss           0xb08160c4        0x0 pegasus_crt.a(ntohs.o)
 .bss           0xb08160c4        0x0 pegasus_crt.a(htonl.o)
 .bss           0xb08160c4        0x0 pegasus_crt.a(htons.o)
 .bss           0xb08160c4        0x0 pegasus_crt.a(inet_pton.o)
 .bss           0xb08160c4        0x0 pegasus_crt.a(ntohl.o)
 .bss           0xb08160c4        0x0 pegasus_crt.a(my_process.o)
 .bss           0xb08160c4        0x0 pegasus_crt.a(ip_input.o)
 .bss           0xb08160c4        0x0 pegasus_crt.a(tcp.o)
 .bss           0xb08160c4        0x0 pegasus_crt.a(tcp_sock.o)
 .bss           0xb08160c4        0x0 pegasus_crt.a(icmpv4.o)
 .bss           0xb08160c4        0x0 pegasus_crt.a(tcp_input.o)
 .bss           0xb08160c4        0x0 pegasus_crt.a(udp.o)
 .bss           0xb08160c4        0x0 pegasus_crt.a(tcp_data.o)
 .bss           0xb08160c4        0x0 pegasus_crt.a(atoi.o)
 .bss           0xb08160c4        0x4 pegasus_crt.a(strtok.o)
 .bss           0xb08160c8        0x0 pegasus_crt.a(strpbrk.o)
 .bss           0xb08160c8        0x0 pegasus_crt.a(thread.o)
 .bss           0xb08160c8        0x4 pegasus_crt.a(udp_sock.o)
 .bss           0xb08160cc        0x0 pegasus_crt.a(ip_output.o)
 .bss           0xb08160cc        0x0 pegasus_crt.a(sock.o)
 .bss           0xb08160cc        0x0 pegasus_crt.a(tcp_output.o)
 .bss           0xb08160cc        0x0 pegasus_crt.a(dst.o)
 *(COMMON)
 *fill*         0xb08160cc       0x14 
 COMMON         0xb08160e0     0x17b8 pegasus_crt.a(kernel_main_old.o)
                0xb08160e0                current_tty
                0xb08160e4                is_e0
                0xb08160e8                idt_ptr
                0xb08160f0                pid
                0xb08160f4                KernelVirtualMemory
                0xb0816100                current_dis_pos
                0xb0816104                dis_pos
                0xb0816108                k_reenter
                0xb0816120                gdt
                0xb0816520                proc_ready_table
                0xb0816524                test_ticks
                0xb0816528                pcaller
                0xb0816540                keyboard_buffer
                0xb081674c                pcb_list
                0xb081675c                gdt_index
                0xb0816760                tty_table
                0xb0816fa0                tss
                0xb081700c                KernelPool
                0xb081701c                net_buf
                0xb0817020                nic_current_page
                0xb0817024                counter
                0xb0817028                key_pressed
                0xb081702c                fork_pid
                0xb0817030                is_shift
                0xb0817031                net_data
                0xb0817034                gdt_ptr
                0xb0817040                idt
                0xb0817840                main_thread
                0xb0817848                ticks
                0xb0817850                is_init
                0xb0817854                UserPool
                0xb0817864                all_pcb_list
                0xb0817874                console_table
                0xb0817884                is_disp
                0xb0817888                MAIN_THREAD_PAGE_DIRECTORY
                0xb081788c                helloStr
 *fill*         0xb0817898        0x8 
 COMMON         0xb08178a0    0x91de8 pegasus_crt.a(global.o)
                0xb08178a0                proc_stack
                0xb08a78a0                proc_table
 *fill*         0xb08a9688       0x18 
 COMMON         0xb08a96a0      0x440 pegasus_crt.a(hd.o)
                0xb08a96a0                hd_info
                0xb08a98e0                hd_cache
 COMMON         0xb08a9ae0      0xe68 pegasus_crt.a(fs_main.o)
                0xb08a9ae0                file_desc_table
                0xb08a9ee0                phy_super_block_buf
                0xb08a9ee4                phy_fsbuf
                0xb08a9f00                inode_table
                0xb08aa900                super_block_buf
                0xb08aa904                fsbuf
                0xb08aa920                root
 *fill*         0xb08aa948       0x18 
 COMMON         0xb08aa960       0xf0 pegasus_crt.a(mem.o)
                0xb08aa960                kernel_mem_block_decs_array
 COMMON         0xb08aaa50        0x8 pegasus_crt.a(netdev.o)
                0xb08aaa50                loop
                0xb08aaa54                netdev
                0xb08aaa58                        . = ALIGN ((. != 0x0)?0x4:0x1)
                0xb08aaa58                        . = ALIGN (0x4)
                0xb08aaa58                        . = SEGMENT_START ("ldata-segment", .)
                0xb08aaa58                        . = ALIGN (0x4)
                0xb08aaa58                        _end = .
                [!provide]                        PROVIDE (end = .)
                0xb08aaa58                        . = DATA_SEGMENT_END (.)

.stab
 *(.stab)

.stabstr
 *(.stabstr)

.stab.excl
 *(.stab.excl)

.stab.exclstr
 *(.stab.exclstr)

.stab.index
 *(.stab.index)

.stab.indexstr
 *(.stab.indexstr)

.comment        0x00000000       0x2c
 *(.comment)
 .comment       0x00000000       0x2c test.o
                                 0x2d (size before relaxing)
 .comment       0x0000002c       0x2d pegasus_crt.a(kernel_main_old.o)
 .comment       0x0000002c       0x2d pegasus_crt.a(protect.o)
 .comment       0x0000002c       0x2d pegasus_crt.a(console.o)
 .comment       0x0000002c       0x2d pegasus_crt.a(process.o)
 .comment       0x0000002c       0x2d pegasus_crt.a(global.o)
 .comment       0x0000002c       0x2d pegasus_crt.a(keyboard.o)
 .comment       0x0000002c       0x2d pegasus_crt.a(task_network.o)
 .comment       0x0000002c       0x2d pegasus_crt.a(hd.o)
 .comment       0x0000002c       0x2d pegasus_crt.a(fs_main.o)
 .comment       0x0000002c       0x2d pegasus_crt.a(main.o)
 .comment       0x0000002c       0x2d pegasus_crt.a(mem.o)
 .comment       0x0000002c       0x2d pegasus_crt.a(exec.o)
 .comment       0x0000002c       0x2d pegasus_crt.a(exit.o)
 .comment       0x0000002c       0x2d pegasus_crt.a(wait.o)
 .comment       0x0000002c       0x2d pegasus_crt.a(fork.o)
 .comment       0x0000002c       0x2d pegasus_crt.a(strcmp.o)
 .comment       0x0000002c       0x2d pegasus_crt.a(read.o)
 .comment       0x0000002c       0x2d pegasus_crt.a(open.o)
 .comment       0x0000002c       0x2d pegasus_crt.a(write.o)
 .comment       0x0000002c       0x2d pegasus_crt.a(close.o)
 .comment       0x0000002c       0x2d pegasus_crt.a(double_link_list.o)
 .comment       0x0000002c       0x2d pegasus_crt.a(netdev.o)
 .comment       0x0000002c       0x2d pegasus_crt.a(arp.o)
 .comment       0x0000002c       0x2d pegasus_crt.a(skbuff.o)
 .comment       0x0000002c       0x2d pegasus_crt.a(route.o)
 .comment       0x0000002c       0x2d pegasus_crt.a(utils.o)
 .comment       0x0000002c       0x2d pegasus_crt.a(forkexit.o)
 .comment       0x0000002c       0x2d pegasus_crt.a(exec.o)
 .comment       0x0000002c       0x2d pegasus_crt.a(perror.o)
 .comment       0x0000002c       0x2d pegasus_crt.a(sscanf.o)
 .comment       0x0000002c       0x2d pegasus_crt.a(ntohs.o)
 .comment       0x0000002c       0x2d pegasus_crt.a(htonl.o)
 .comment       0x0000002c       0x2d pegasus_crt.a(htons.o)
 .comment       0x0000002c       0x2d pegasus_crt.a(inet_pton.o)
 .comment       0x0000002c       0x2d pegasus_crt.a(ntohl.o)
 .comment       0x0000002c       0x2d pegasus_crt.a(my_process.o)
 .comment       0x0000002c       0x2d pegasus_crt.a(ip_input.o)
 .comment       0x0000002c       0x2d pegasus_crt.a(tcp.o)
 .comment       0x0000002c       0x2d pegasus_crt.a(tcp_sock.o)
 .comment       0x0000002c       0x2d pegasus_crt.a(icmpv4.o)
 .comment       0x0000002c       0x2d pegasus_crt.a(tcp_input.o)
 .comment       0x0000002c       0x2d pegasus_crt.a(udp.o)
 .comment       0x0000002c       0x2d pegasus_crt.a(tcp_data.o)
 .comment       0x0000002c       0x2d pegasus_crt.a(atoi.o)
 .comment       0x0000002c       0x2d pegasus_crt.a(strtok.o)
 .comment       0x0000002c       0x2d pegasus_crt.a(strpbrk.o)
 .comment       0x0000002c       0x2d pegasus_crt.a(thread.o)
 .comment       0x0000002c       0x2d pegasus_crt.a(udp_sock.o)
 .comment       0x0000002c       0x2d pegasus_crt.a(ip_output.o)
 .comment       0x0000002c       0x2d pegasus_crt.a(sock.o)
 .comment       0x0000002c       0x2d pegasus_crt.a(tcp_output.o)
 .comment       0x0000002c       0x2d pegasus_crt.a(dst.o)

.gnu.build.attributes
 *(.gnu.build.attributes .gnu.build.attributes.*)

.debug
 *(.debug)

.line
 *(.line)

.debug_srcinfo
 *(.debug_srcinfo)

.debug_sfnames
 *(.debug_sfnames)

.debug_aranges  0x00000000      0x678
 *(.debug_aranges)
 .debug_aranges
                0x00000000       0x20 pegasus_crt.a(kernel_main_old.o)
 .debug_aranges
                0x00000020       0x20 pegasus_crt.a(protect.o)
 .debug_aranges
                0x00000040       0x20 pegasus_crt.a(console.o)
 .debug_aranges
                0x00000060       0x20 pegasus_crt.a(process.o)
 .debug_aranges
                0x00000080       0x18 pegasus_crt.a(global.o)
 .debug_aranges
                0x00000098       0x20 pegasus_crt.a(keyboard.o)
 .debug_aranges
                0x000000b8       0x20 pegasus_crt.a(task_network.o)
 .debug_aranges
                0x000000d8       0x20 pegasus_crt.a(hd.o)
 .debug_aranges
                0x000000f8       0x20 pegasus_crt.a(fs_main.o)
 .debug_aranges
                0x00000118       0x20 pegasus_crt.a(main.o)
 .debug_aranges
                0x00000138       0x20 pegasus_crt.a(mem.o)
 .debug_aranges
                0x00000158       0x20 pegasus_crt.a(exec.o)
 .debug_aranges
                0x00000178       0x20 pegasus_crt.a(exit.o)
 .debug_aranges
                0x00000198       0x20 pegasus_crt.a(wait.o)
 .debug_aranges
                0x000001b8       0x20 pegasus_crt.a(fork.o)
 .debug_aranges
                0x000001d8       0x20 pegasus_crt.a(strcmp.o)
 .debug_aranges
                0x000001f8       0x20 pegasus_crt.a(read.o)
 .debug_aranges
                0x00000218       0x20 pegasus_crt.a(open.o)
 .debug_aranges
                0x00000238       0x20 pegasus_crt.a(write.o)
 .debug_aranges
                0x00000258       0x20 pegasus_crt.a(close.o)
 .debug_aranges
                0x00000278       0x20 pegasus_crt.a(double_link_list.o)
 .debug_aranges
                0x00000298       0x20 pegasus_crt.a(netdev.o)
 .debug_aranges
                0x000002b8       0x20 pegasus_crt.a(arp.o)
 .debug_aranges
                0x000002d8       0x20 pegasus_crt.a(skbuff.o)
 .debug_aranges
                0x000002f8       0x20 pegasus_crt.a(route.o)
 .debug_aranges
                0x00000318       0x20 pegasus_crt.a(utils.o)
 .debug_aranges
                0x00000338       0x20 pegasus_crt.a(forkexit.o)
 .debug_aranges
                0x00000358       0x20 pegasus_crt.a(exec.o)
 .debug_aranges
                0x00000378       0x20 pegasus_crt.a(perror.o)
 .debug_aranges
                0x00000398       0x20 pegasus_crt.a(sscanf.o)
 .debug_aranges
                0x000003b8       0x20 pegasus_crt.a(ntohs.o)
 .debug_aranges
                0x000003d8       0x20 pegasus_crt.a(htonl.o)
 .debug_aranges
                0x000003f8       0x20 pegasus_crt.a(htons.o)
 .debug_aranges
                0x00000418       0x20 pegasus_crt.a(inet_pton.o)
 .debug_aranges
                0x00000438       0x20 pegasus_crt.a(ntohl.o)
 .debug_aranges
                0x00000458       0x20 pegasus_crt.a(my_process.o)
 .debug_aranges
                0x00000478       0x20 pegasus_crt.a(ip_input.o)
 .debug_aranges
                0x00000498       0x20 pegasus_crt.a(tcp.o)
 .debug_aranges
                0x000004b8       0x20 pegasus_crt.a(tcp_sock.o)
 .debug_aranges
                0x000004d8       0x20 pegasus_crt.a(icmpv4.o)
 .debug_aranges
                0x000004f8       0x20 pegasus_crt.a(tcp_input.o)
 .debug_aranges
                0x00000518       0x20 pegasus_crt.a(udp.o)
 .debug_aranges
                0x00000538       0x20 pegasus_crt.a(tcp_data.o)
 .debug_aranges
                0x00000558       0x20 pegasus_crt.a(atoi.o)
 .debug_aranges
                0x00000578       0x20 pegasus_crt.a(strtok.o)
 .debug_aranges
                0x00000598       0x20 pegasus_crt.a(strpbrk.o)
 .debug_aranges
                0x000005b8       0x20 pegasus_crt.a(thread.o)
 .debug_aranges
                0x000005d8       0x20 pegasus_crt.a(udp_sock.o)
 .debug_aranges
                0x000005f8       0x20 pegasus_crt.a(ip_output.o)
 .debug_aranges
                0x00000618       0x20 pegasus_crt.a(sock.o)
 .debug_aranges
                0x00000638       0x20 pegasus_crt.a(tcp_output.o)
 .debug_aranges
                0x00000658       0x20 pegasus_crt.a(dst.o)

.debug_pubnames
 *(.debug_pubnames)

.debug_info     0x00000000    0x33bba
 *(.debug_info .gnu.linkonce.wi.*)
 .debug_info    0x00000000     0x284d pegasus_crt.a(kernel_main_old.o)
 .debug_info    0x0000284d     0x11b1 pegasus_crt.a(protect.o)
 .debug_info    0x000039fe     0x1286 pegasus_crt.a(console.o)
 .debug_info    0x00004c84      0xf5e pegasus_crt.a(process.o)
 .debug_info    0x00005be2      0xe86 pegasus_crt.a(global.o)
 .debug_info    0x00006a68      0xfda pegasus_crt.a(keyboard.o)
 .debug_info    0x00007a42      0x65b pegasus_crt.a(task_network.o)
 .debug_info    0x0000809d     0x17f5 pegasus_crt.a(hd.o)
 .debug_info    0x00009892     0x1f37 pegasus_crt.a(fs_main.o)
 .debug_info    0x0000b7c9      0xdc8 pegasus_crt.a(main.o)
 .debug_info    0x0000c591     0x1d4e pegasus_crt.a(mem.o)
 .debug_info    0x0000e2df      0xf3c pegasus_crt.a(exec.o)
 .debug_info    0x0000f21b      0xdaf pegasus_crt.a(exit.o)
 .debug_info    0x0000ffca      0xdbd pegasus_crt.a(wait.o)
 .debug_info    0x00010d87      0xda4 pegasus_crt.a(fork.o)
 .debug_info    0x00011b2b       0xc1 pegasus_crt.a(strcmp.o)
 .debug_info    0x00011bec      0xea1 pegasus_crt.a(read.o)
 .debug_info    0x00012a8d      0xe02 pegasus_crt.a(open.o)
 .debug_info    0x0001388f      0xe2f pegasus_crt.a(write.o)
 .debug_info    0x000146be      0xdb6 pegasus_crt.a(close.o)
 .debug_info    0x00015474     0x1015 pegasus_crt.a(double_link_list.o)
 .debug_info    0x00016489     0x151f pegasus_crt.a(netdev.o)
 .debug_info    0x000179a8      0x76e pegasus_crt.a(arp.o)
 .debug_info    0x00018116      0x39f pegasus_crt.a(skbuff.o)
 .debug_info    0x000184b5     0x127e pegasus_crt.a(route.o)
 .debug_info    0x00019733      0x367 pegasus_crt.a(utils.o)
 .debug_info    0x00019a9a      0xf9a pegasus_crt.a(forkexit.o)
 .debug_info    0x0001aa34     0x11d6 pegasus_crt.a(exec.o)
 .debug_info    0x0001bc0a       0x5c pegasus_crt.a(perror.o)
 .debug_info    0x0001bc66      0x20e pegasus_crt.a(sscanf.o)
 .debug_info    0x0001be74       0xa8 pegasus_crt.a(ntohs.o)
 .debug_info    0x0001bf1c       0xcb pegasus_crt.a(htonl.o)
 .debug_info    0x0001bfe7       0xa8 pegasus_crt.a(htons.o)
 .debug_info    0x0001c08f      0x260 pegasus_crt.a(inet_pton.o)
 .debug_info    0x0001c2ef       0xcb pegasus_crt.a(ntohl.o)
 .debug_info    0x0001c3ba     0x1499 pegasus_crt.a(my_process.o)
 .debug_info    0x0001d853     0x1aa7 pegasus_crt.a(ip_input.o)
 .debug_info    0x0001f2fa     0x1e0a pegasus_crt.a(tcp.o)
 .debug_info    0x00021104     0x21fb pegasus_crt.a(tcp_sock.o)
 .debug_info    0x000232ff     0x1905 pegasus_crt.a(icmpv4.o)
 .debug_info    0x00024c04     0x210d pegasus_crt.a(tcp_input.o)
 .debug_info    0x00026d11     0x1b0a pegasus_crt.a(udp.o)
 .debug_info    0x0002881b     0x1d73 pegasus_crt.a(tcp_data.o)
 .debug_info    0x0002a58e       0xc9 pegasus_crt.a(atoi.o)
 .debug_info    0x0002a657       0xae pegasus_crt.a(strtok.o)
 .debug_info    0x0002a705       0xcf pegasus_crt.a(strpbrk.o)
 .debug_info    0x0002a7d4     0x1065 pegasus_crt.a(thread.o)
 .debug_info    0x0002b839     0x1ed9 pegasus_crt.a(udp_sock.o)
 .debug_info    0x0002d712     0x1741 pegasus_crt.a(ip_output.o)
 .debug_info    0x0002ee53     0x185c pegasus_crt.a(sock.o)
 .debug_info    0x000306af     0x2325 pegasus_crt.a(tcp_output.o)
 .debug_info    0x000329d4     0x11e6 pegasus_crt.a(dst.o)

.debug_abbrev   0x00000000     0x6664
 *(.debug_abbrev)
 .debug_abbrev  0x00000000      0x452 pegasus_crt.a(kernel_main_old.o)
 .debug_abbrev  0x00000452      0x227 pegasus_crt.a(protect.o)
 .debug_abbrev  0x00000679      0x2ac pegasus_crt.a(console.o)
 .debug_abbrev  0x00000925      0x1e0 pegasus_crt.a(process.o)
 .debug_abbrev  0x00000b05      0x157 pegasus_crt.a(global.o)
 .debug_abbrev  0x00000c5c      0x1fb pegasus_crt.a(keyboard.o)
 .debug_abbrev  0x00000e57      0x17a pegasus_crt.a(task_network.o)
 .debug_abbrev  0x00000fd1      0x2e3 pegasus_crt.a(hd.o)
 .debug_abbrev  0x000012b4      0x2ef pegasus_crt.a(fs_main.o)
 .debug_abbrev  0x000015a3      0x208 pegasus_crt.a(main.o)
 .debug_abbrev  0x000017ab      0x2ea pegasus_crt.a(mem.o)
 .debug_abbrev  0x00001a95      0x1e8 pegasus_crt.a(exec.o)
 .debug_abbrev  0x00001c7d      0x19b pegasus_crt.a(exit.o)
 .debug_abbrev  0x00001e18      0x19f pegasus_crt.a(wait.o)
 .debug_abbrev  0x00001fb7      0x18a pegasus_crt.a(fork.o)
 .debug_abbrev  0x00002141       0x94 pegasus_crt.a(strcmp.o)
 .debug_abbrev  0x000021d5      0x1ef pegasus_crt.a(read.o)
 .debug_abbrev  0x000023c4      0x1c5 pegasus_crt.a(open.o)
 .debug_abbrev  0x00002589      0x1db pegasus_crt.a(write.o)
 .debug_abbrev  0x00002764      0x19d pegasus_crt.a(close.o)
 .debug_abbrev  0x00002901      0x216 pegasus_crt.a(double_link_list.o)
 .debug_abbrev  0x00002b17      0x2ce pegasus_crt.a(netdev.o)
 .debug_abbrev  0x00002de5      0x210 pegasus_crt.a(arp.o)
 .debug_abbrev  0x00002ff5      0x15f pegasus_crt.a(skbuff.o)
 .debug_abbrev  0x00003154      0x24e pegasus_crt.a(route.o)
 .debug_abbrev  0x000033a2      0x17a pegasus_crt.a(utils.o)
 .debug_abbrev  0x0000351c      0x204 pegasus_crt.a(forkexit.o)
 .debug_abbrev  0x00003720      0x1c4 pegasus_crt.a(exec.o)
 .debug_abbrev  0x000038e4       0x5c pegasus_crt.a(perror.o)
 .debug_abbrev  0x00003940       0xdd pegasus_crt.a(sscanf.o)
 .debug_abbrev  0x00003a1d       0x6c pegasus_crt.a(ntohs.o)
 .debug_abbrev  0x00003a89       0xa5 pegasus_crt.a(htonl.o)
 .debug_abbrev  0x00003b2e       0x6c pegasus_crt.a(htons.o)
 .debug_abbrev  0x00003b9a      0x116 pegasus_crt.a(inet_pton.o)
 .debug_abbrev  0x00003cb0       0xa5 pegasus_crt.a(ntohl.o)
 .debug_abbrev  0x00003d55      0x260 pegasus_crt.a(my_process.o)
 .debug_abbrev  0x00003fb5      0x2d1 pegasus_crt.a(ip_input.o)
 .debug_abbrev  0x00004286      0x332 pegasus_crt.a(tcp.o)
 .debug_abbrev  0x000045b8      0x3e6 pegasus_crt.a(tcp_sock.o)
 .debug_abbrev  0x0000499e      0x236 pegasus_crt.a(icmpv4.o)
 .debug_abbrev  0x00004bd4      0x355 pegasus_crt.a(tcp_input.o)
 .debug_abbrev  0x00004f29      0x2d3 pegasus_crt.a(udp.o)
 .debug_abbrev  0x000051fc      0x2a6 pegasus_crt.a(tcp_data.o)
 .debug_abbrev  0x000054a2       0x94 pegasus_crt.a(atoi.o)
 .debug_abbrev  0x00005536       0x91 pegasus_crt.a(strtok.o)
 .debug_abbrev  0x000055c7       0xa5 pegasus_crt.a(strpbrk.o)
 .debug_abbrev  0x0000566c      0x222 pegasus_crt.a(thread.o)
 .debug_abbrev  0x0000588e      0x3b1 pegasus_crt.a(udp_sock.o)
 .debug_abbrev  0x00005c3f      0x213 pegasus_crt.a(ip_output.o)
 .debug_abbrev  0x00005e52      0x273 pegasus_crt.a(sock.o)
 .debug_abbrev  0x000060c5      0x39b pegasus_crt.a(tcp_output.o)
 .debug_abbrev  0x00006460      0x204 pegasus_crt.a(dst.o)

.debug_line     0x00000000     0x835a
 *(.debug_line .debug_line.* .debug_line_end)
 .debug_line    0x00000000      0xe26 pegasus_crt.a(kernel_main_old.o)
 .debug_line    0x00000e26      0x1ff pegasus_crt.a(protect.o)
 .debug_line    0x00001025      0x54e pegasus_crt.a(console.o)
 .debug_line    0x00001573      0x190 pegasus_crt.a(process.o)
 .debug_line    0x00001703       0x95 pegasus_crt.a(global.o)
 .debug_line    0x00001798      0x296 pegasus_crt.a(keyboard.o)
 .debug_line    0x00001a2e       0xcd pegasus_crt.a(task_network.o)
 .debug_line    0x00001afb      0x62b pegasus_crt.a(hd.o)
 .debug_line    0x00002126      0xc23 pegasus_crt.a(fs_main.o)
 .debug_line    0x00002d49       0xec pegasus_crt.a(main.o)
 .debug_line    0x00002e35      0x7ea pegasus_crt.a(mem.o)
 .debug_line    0x0000361f      0x18b pegasus_crt.a(exec.o)
 .debug_line    0x000037aa       0xa0 pegasus_crt.a(exit.o)
 .debug_line    0x0000384a       0xb7 pegasus_crt.a(wait.o)
 .debug_line    0x00003901       0xa5 pegasus_crt.a(fork.o)
 .debug_line    0x000039a6       0x9c pegasus_crt.a(strcmp.o)
 .debug_line    0x00003a42      0x15b pegasus_crt.a(read.o)
 .debug_line    0x00003b9d       0xc3 pegasus_crt.a(open.o)
 .debug_line    0x00003c60       0xc2 pegasus_crt.a(write.o)
 .debug_line    0x00003d22       0xb3 pegasus_crt.a(close.o)
 .debug_line    0x00003dd5      0x1ca pegasus_crt.a(double_link_list.o)
 .debug_line    0x00003f9f      0x277 pegasus_crt.a(netdev.o)
 .debug_line    0x00004216      0x34c pegasus_crt.a(arp.o)
 .debug_line    0x00004562      0x121 pegasus_crt.a(skbuff.o)
 .debug_line    0x00004683      0x209 pegasus_crt.a(route.o)
 .debug_line    0x0000488c      0x13c pegasus_crt.a(utils.o)
 .debug_line    0x000049c8      0x174 pegasus_crt.a(forkexit.o)
 .debug_line    0x00004b3c      0x20c pegasus_crt.a(exec.o)
 .debug_line    0x00004d48       0x48 pegasus_crt.a(perror.o)
 .debug_line    0x00004d90      0x1d2 pegasus_crt.a(sscanf.o)
 .debug_line    0x00004f62       0x6c pegasus_crt.a(ntohs.o)
 .debug_line    0x00004fce       0xc1 pegasus_crt.a(htonl.o)
 .debug_line    0x0000508f       0x6c pegasus_crt.a(htons.o)
 .debug_line    0x000050fb      0x167 pegasus_crt.a(inet_pton.o)
 .debug_line    0x00005262       0xc1 pegasus_crt.a(ntohl.o)
 .debug_line    0x00005323      0x33b pegasus_crt.a(my_process.o)
 .debug_line    0x0000565e      0x272 pegasus_crt.a(ip_input.o)
 .debug_line    0x000058d0      0x2f5 pegasus_crt.a(tcp.o)
 .debug_line    0x00005bc5      0x57b pegasus_crt.a(tcp_sock.o)
 .debug_line    0x00006140      0x225 pegasus_crt.a(icmpv4.o)
 .debug_line    0x00006365      0x658 pegasus_crt.a(tcp_input.o)
 .debug_line    0x000069bd      0x2ec pegasus_crt.a(udp.o)
 .debug_line    0x00006ca9      0x3e9 pegasus_crt.a(tcp_data.o)
 .debug_line    0x00007092       0xad pegasus_crt.a(atoi.o)
 .debug_line    0x0000713f       0x6e pegasus_crt.a(strtok.o)
 .debug_line    0x000071ad       0xb0 pegasus_crt.a(strpbrk.o)
 .debug_line    0x0000725d      0x145 pegasus_crt.a(thread.o)
 .debug_line    0x000073a2      0x4b0 pegasus_crt.a(udp_sock.o)
 .debug_line    0x00007852      0x1fe pegasus_crt.a(ip_output.o)
 .debug_line    0x00007a50      0x222 pegasus_crt.a(sock.o)
 .debug_line    0x00007c72      0x58a pegasus_crt.a(tcp_output.o)
 .debug_line    0x000081fc      0x15e pegasus_crt.a(dst.o)

.debug_frame
 *(.debug_frame)

.debug_str      0x00000000     0x320a
 *(.debug_str)
 .debug_str     0x00000000     0x320a pegasus_crt.a(kernel_main_old.o)
                                0xb77 (size before relaxing)
 .debug_str     0x0000320a      0x766 pegasus_crt.a(protect.o)
 .debug_str     0x0000320a      0x75a pegasus_crt.a(console.o)
 .debug_str     0x0000320a      0x645 pegasus_crt.a(process.o)
 .debug_str     0x0000320a      0x60b pegasus_crt.a(global.o)
 .debug_str     0x0000320a      0x697 pegasus_crt.a(keyboard.o)
 .debug_str     0x0000320a      0x28f pegasus_crt.a(task_network.o)
 .debug_str     0x0000320a      0x914 pegasus_crt.a(hd.o)
 .debug_str     0x0000320a      0xaf5 pegasus_crt.a(fs_main.o)
 .debug_str     0x0000320a      0x593 pegasus_crt.a(main.o)
 .debug_str     0x0000320a      0xa93 pegasus_crt.a(mem.o)
 .debug_str     0x0000320a      0x627 pegasus_crt.a(exec.o)
 .debug_str     0x0000320a      0x5a0 pegasus_crt.a(exit.o)
 .debug_str     0x0000320a      0x5a0 pegasus_crt.a(wait.o)
 .debug_str     0x0000320a      0x599 pegasus_crt.a(fork.o)
 .debug_str     0x0000320a       0xb1 pegasus_crt.a(strcmp.o)
 .debug_str     0x0000320a      0x617 pegasus_crt.a(read.o)
 .debug_str     0x0000320a      0x5de pegasus_crt.a(open.o)
 .debug_str     0x0000320a      0x5db pegasus_crt.a(write.o)
 .debug_str     0x0000320a      0x5a6 pegasus_crt.a(close.o)
 .debug_str     0x0000320a      0x6dc pegasus_crt.a(double_link_list.o)
 .debug_str     0x0000320a      0x824 pegasus_crt.a(netdev.o)
 .debug_str     0x0000320a      0x2f6 pegasus_crt.a(arp.o)
 .debug_str     0x0000320a      0x1d8 pegasus_crt.a(skbuff.o)
 .debug_str     0x0000320a      0x73e pegasus_crt.a(route.o)
 .debug_str     0x0000320a      0x1b8 pegasus_crt.a(utils.o)
 .debug_str     0x0000320a      0x612 pegasus_crt.a(forkexit.o)
 .debug_str     0x0000320a      0x868 pegasus_crt.a(exec.o)
 .debug_str     0x0000320a       0x99 pegasus_crt.a(perror.o)
 .debug_str     0x0000320a      0x102 pegasus_crt.a(sscanf.o)
 .debug_str     0x0000320a      0x101 pegasus_crt.a(ntohs.o)
 .debug_str     0x0000320a       0xf4 pegasus_crt.a(htonl.o)
 .debug_str     0x0000320a      0x102 pegasus_crt.a(htons.o)
 .debug_str     0x0000320a      0x14c pegasus_crt.a(inet_pton.o)
 .debug_str     0x0000320a       0xf3 pegasus_crt.a(ntohl.o)
 .debug_str     0x0000320a      0x8f9 pegasus_crt.a(my_process.o)
 .debug_str     0x0000320a      0x996 pegasus_crt.a(ip_input.o)
 .debug_str     0x0000320a      0xb28 pegasus_crt.a(tcp.o)
 .debug_str     0x0000320a      0xcbb pegasus_crt.a(tcp_sock.o)
 .debug_str     0x0000320a      0x915 pegasus_crt.a(icmpv4.o)
 .debug_str     0x0000320a      0xb88 pegasus_crt.a(tcp_input.o)
 .debug_str     0x0000320a      0x948 pegasus_crt.a(udp.o)
 .debug_str     0x0000320a      0xa44 pegasus_crt.a(tcp_data.o)
 .debug_str     0x0000320a       0xad pegasus_crt.a(atoi.o)
 .debug_str     0x0000320a       0xb9 pegasus_crt.a(strtok.o)
 .debug_str     0x0000320a       0xc1 pegasus_crt.a(strpbrk.o)
 .debug_str     0x0000320a      0x712 pegasus_crt.a(thread.o)
 .debug_str     0x0000320a      0xa6c pegasus_crt.a(udp_sock.o)
 .debug_str     0x0000320a      0x851 pegasus_crt.a(ip_output.o)
 .debug_str     0x0000320a      0x8b1 pegasus_crt.a(sock.o)
 .debug_str     0x0000320a      0xc18 pegasus_crt.a(tcp_output.o)
 .debug_str     0x0000320a      0x71d pegasus_crt.a(dst.o)

.debug_loc
 *(.debug_loc)

.debug_macinfo
 *(.debug_macinfo)

.debug_weaknames
 *(.debug_weaknames)

.debug_funcnames
 *(.debug_funcnames)

.debug_typenames
 *(.debug_typenames)

.debug_varnames
 *(.debug_varnames)

.debug_pubtypes
 *(.debug_pubtypes)

.debug_ranges   0x00000000       0x90
 *(.debug_ranges)
 .debug_ranges  0x00000000       0x30 pegasus_crt.a(kernel_main_old.o)
 .debug_ranges  0x00000030       0x48 pegasus_crt.a(hd.o)
 .debug_ranges  0x00000078       0x18 pegasus_crt.a(exec.o)

.debug_addr
 *(.debug_addr)

.debug_line_str
 *(.debug_line_str)

.debug_loclists
 *(.debug_loclists)

.debug_macro
 *(.debug_macro)

.debug_names
 *(.debug_names)

.debug_rnglists
 *(.debug_rnglists)

.debug_str_offsets
 *(.debug_str_offsets)

.debug_sup
 *(.debug_sup)

.gnu.attributes
 *(.gnu.attributes)

/DISCARD/
 *(.note.GNU-stack)
 *(.gnu_debuglink)
 *(.gnu.lto_*)
OUTPUT(test elf32-i386)
